
bin/IntelPCM:     file format elf64-x86-64


Disassembly of section .init:

0000000000410360 <_init>:
  410360:	48 83 ec 08          	sub    $0x8,%rsp
  410364:	48 8b 05 8d 6c 22 00 	mov    0x226c8d(%rip),%rax        # 636ff8 <_DYNAMIC+0x228>
  41036b:	48 85 c0             	test   %rax,%rax
  41036e:	74 02                	je     410372 <_init+0x12>
  410370:	ff d0                	callq  *%rax
  410372:	48 83 c4 08          	add    $0x8,%rsp
  410376:	c3                   	retq   

Disassembly of section .plt:

0000000000410380 <_Znam@plt-0x10>:
  410380:	ff 35 82 6c 22 00    	pushq  0x226c82(%rip)        # 637008 <_GLOBAL_OFFSET_TABLE_+0x8>
  410386:	ff 25 84 6c 22 00    	jmpq   *0x226c84(%rip)        # 637010 <_GLOBAL_OFFSET_TABLE_+0x10>
  41038c:	0f 1f 40 00          	nopl   0x0(%rax)

0000000000410390 <_Znam@plt>:
  410390:	ff 25 82 6c 22 00    	jmpq   *0x226c82(%rip)        # 637018 <_GLOBAL_OFFSET_TABLE_+0x18>
  410396:	68 00 00 00 00       	pushq  $0x0
  41039b:	e9 e0 ff ff ff       	jmpq   410380 <_init+0x20>

00000000004103a0 <_ZNSo3putEc@plt>:
  4103a0:	ff 25 7a 6c 22 00    	jmpq   *0x226c7a(%rip)        # 637020 <_GLOBAL_OFFSET_TABLE_+0x20>
  4103a6:	68 01 00 00 00       	pushq  $0x1
  4103ab:	e9 d0 ff ff ff       	jmpq   410380 <_init+0x20>

00000000004103b0 <__errno_location@plt>:
  4103b0:	ff 25 72 6c 22 00    	jmpq   *0x226c72(%rip)        # 637028 <_GLOBAL_OFFSET_TABLE_+0x28>
  4103b6:	68 02 00 00 00       	pushq  $0x2
  4103bb:	e9 c0 ff ff ff       	jmpq   410380 <_init+0x20>

00000000004103c0 <printf@plt>:
  4103c0:	ff 25 6a 6c 22 00    	jmpq   *0x226c6a(%rip)        # 637030 <_GLOBAL_OFFSET_TABLE_+0x30>
  4103c6:	68 03 00 00 00       	pushq  $0x3
  4103cb:	e9 b0 ff ff ff       	jmpq   410380 <_init+0x20>

00000000004103d0 <pthread_cancel@plt>:
  4103d0:	ff 25 62 6c 22 00    	jmpq   *0x226c62(%rip)        # 637038 <_GLOBAL_OFFSET_TABLE_+0x38>
  4103d6:	68 04 00 00 00       	pushq  $0x4
  4103db:	e9 a0 ff ff ff       	jmpq   410380 <_init+0x20>

00000000004103e0 <_ZSt29_Rb_tree_insert_and_rebalancebPSt18_Rb_tree_node_baseS0_RS_@plt>:
  4103e0:	ff 25 5a 6c 22 00    	jmpq   *0x226c5a(%rip)        # 637040 <_GLOBAL_OFFSET_TABLE_+0x40>
  4103e6:	68 05 00 00 00       	pushq  $0x5
  4103eb:	e9 90 ff ff ff       	jmpq   410380 <_init+0x20>

00000000004103f0 <sprintf@plt>:
  4103f0:	ff 25 52 6c 22 00    	jmpq   *0x226c52(%rip)        # 637048 <_GLOBAL_OFFSET_TABLE_+0x48>
  4103f6:	68 06 00 00 00       	pushq  $0x6
  4103fb:	e9 80 ff ff ff       	jmpq   410380 <_init+0x20>

0000000000410400 <_ZNSt13basic_filebufIcSt11char_traitsIcEE5closeEv@plt>:
  410400:	ff 25 4a 6c 22 00    	jmpq   *0x226c4a(%rip)        # 637050 <_GLOBAL_OFFSET_TABLE_+0x50>
  410406:	68 07 00 00 00       	pushq  $0x7
  41040b:	e9 70 ff ff ff       	jmpq   410380 <_init+0x20>

0000000000410410 <_ZNSt7__cxx1119basic_ostringstreamIcSt11char_traitsIcESaIcEED1Ev@plt>:
  410410:	ff 25 42 6c 22 00    	jmpq   *0x226c42(%rip)        # 637058 <_GLOBAL_OFFSET_TABLE_+0x58>
  410416:	68 08 00 00 00       	pushq  $0x8
  41041b:	e9 60 ff ff ff       	jmpq   410380 <_init+0x20>

0000000000410420 <rand@plt>:
  410420:	ff 25 3a 6c 22 00    	jmpq   *0x226c3a(%rip)        # 637060 <_GLOBAL_OFFSET_TABLE_+0x60>
  410426:	68 09 00 00 00       	pushq  $0x9
  41042b:	e9 50 ff ff ff       	jmpq   410380 <_init+0x20>

0000000000410430 <pwrite@plt>:
  410430:	ff 25 32 6c 22 00    	jmpq   *0x226c32(%rip)        # 637068 <_GLOBAL_OFFSET_TABLE_+0x68>
  410436:	68 0a 00 00 00       	pushq  $0xa
  41043b:	e9 40 ff ff ff       	jmpq   410380 <_init+0x20>

0000000000410440 <_ZNSt8ios_baseC2Ev@plt>:
  410440:	ff 25 2a 6c 22 00    	jmpq   *0x226c2a(%rip)        # 637070 <_GLOBAL_OFFSET_TABLE_+0x70>
  410446:	68 0b 00 00 00       	pushq  $0xb
  41044b:	e9 30 ff ff ff       	jmpq   410380 <_init+0x20>

0000000000410450 <nanosleep@plt>:
  410450:	ff 25 22 6c 22 00    	jmpq   *0x226c22(%rip)        # 637078 <_GLOBAL_OFFSET_TABLE_+0x78>
  410456:	68 0c 00 00 00       	pushq  $0xc
  41045b:	e9 20 ff ff ff       	jmpq   410380 <_init+0x20>

0000000000410460 <_ZNSt8ios_baseD2Ev@plt>:
  410460:	ff 25 1a 6c 22 00    	jmpq   *0x226c1a(%rip)        # 637080 <_GLOBAL_OFFSET_TABLE_+0x80>
  410466:	68 0d 00 00 00       	pushq  $0xd
  41046b:	e9 10 ff ff ff       	jmpq   410380 <_init+0x20>

0000000000410470 <strerror@plt>:
  410470:	ff 25 12 6c 22 00    	jmpq   *0x226c12(%rip)        # 637088 <_GLOBAL_OFFSET_TABLE_+0x88>
  410476:	68 0e 00 00 00       	pushq  $0xe
  41047b:	e9 00 ff ff ff       	jmpq   410380 <_init+0x20>

0000000000410480 <_ZSt17__throw_bad_allocv@plt>:
  410480:	ff 25 0a 6c 22 00    	jmpq   *0x226c0a(%rip)        # 637090 <_GLOBAL_OFFSET_TABLE_+0x90>
  410486:	68 0f 00 00 00       	pushq  $0xf
  41048b:	e9 f0 fe ff ff       	jmpq   410380 <_init+0x20>

0000000000410490 <sem_open@plt>:
  410490:	ff 25 02 6c 22 00    	jmpq   *0x226c02(%rip)        # 637098 <_GLOBAL_OFFSET_TABLE_+0x98>
  410496:	68 10 00 00 00       	pushq  $0x10
  41049b:	e9 e0 fe ff ff       	jmpq   410380 <_init+0x20>

00000000004104a0 <__cxa_begin_catch@plt>:
  4104a0:	ff 25 fa 6b 22 00    	jmpq   *0x226bfa(%rip)        # 6370a0 <_GLOBAL_OFFSET_TABLE_+0xa0>
  4104a6:	68 11 00 00 00       	pushq  $0x11
  4104ab:	e9 d0 fe ff ff       	jmpq   410380 <_init+0x20>

00000000004104b0 <strlen@plt>:
  4104b0:	ff 25 f2 6b 22 00    	jmpq   *0x226bf2(%rip)        # 6370a8 <_GLOBAL_OFFSET_TABLE_+0xa8>
  4104b6:	68 12 00 00 00       	pushq  $0x12
  4104bb:	e9 c0 fe ff ff       	jmpq   410380 <_init+0x20>

00000000004104c0 <_ZNSt7__cxx1119basic_istringstreamIcSt11char_traitsIcESaIcEED1Ev@plt>:
  4104c0:	ff 25 ea 6b 22 00    	jmpq   *0x226bea(%rip)        # 6370b0 <_GLOBAL_OFFSET_TABLE_+0xb0>
  4104c6:	68 13 00 00 00       	pushq  $0x13
  4104cb:	e9 b0 fe ff ff       	jmpq   410380 <_init+0x20>

00000000004104d0 <_ZSt4endlIcSt11char_traitsIcEERSt13basic_ostreamIT_T0_ES6_@plt>:
  4104d0:	ff 25 e2 6b 22 00    	jmpq   *0x226be2(%rip)        # 6370b8 <_GLOBAL_OFFSET_TABLE_+0xb8>
  4104d6:	68 14 00 00 00       	pushq  $0x14
  4104db:	e9 a0 fe ff ff       	jmpq   410380 <_init+0x20>

00000000004104e0 <__cxa_allocate_exception@plt>:
  4104e0:	ff 25 da 6b 22 00    	jmpq   *0x226bda(%rip)        # 6370c0 <_GLOBAL_OFFSET_TABLE_+0xc0>
  4104e6:	68 15 00 00 00       	pushq  $0x15
  4104eb:	e9 90 fe ff ff       	jmpq   410380 <_init+0x20>

00000000004104f0 <_ZSt20__throw_length_errorPKc@plt>:
  4104f0:	ff 25 d2 6b 22 00    	jmpq   *0x226bd2(%rip)        # 6370c8 <_GLOBAL_OFFSET_TABLE_+0xc8>
  4104f6:	68 16 00 00 00       	pushq  $0x16
  4104fb:	e9 80 fe ff ff       	jmpq   410380 <_init+0x20>

0000000000410500 <_ZNSt7__cxx1112basic_stringIcSt11char_traitsIcESaIcEE9_M_assignERKS4_@plt>:
  410500:	ff 25 ca 6b 22 00    	jmpq   *0x226bca(%rip)        # 6370d0 <_GLOBAL_OFFSET_TABLE_+0xd0>
  410506:	68 17 00 00 00       	pushq  $0x17
  41050b:	e9 70 fe ff ff       	jmpq   410380 <_init+0x20>

0000000000410510 <munmap@plt>:
  410510:	ff 25 c2 6b 22 00    	jmpq   *0x226bc2(%rip)        # 6370d8 <_GLOBAL_OFFSET_TABLE_+0xd8>
  410516:	68 18 00 00 00       	pushq  $0x18
  41051b:	e9 60 fe ff ff       	jmpq   410380 <_init+0x20>

0000000000410520 <pthread_create@plt>:
  410520:	ff 25 ba 6b 22 00    	jmpq   *0x226bba(%rip)        # 6370e0 <_GLOBAL_OFFSET_TABLE_+0xe0>
  410526:	68 19 00 00 00       	pushq  $0x19
  41052b:	e9 50 fe ff ff       	jmpq   410380 <_init+0x20>

0000000000410530 <_ZNSi10_M_extractIdEERSiRT_@plt>:
  410530:	ff 25 b2 6b 22 00    	jmpq   *0x226bb2(%rip)        # 6370e8 <_GLOBAL_OFFSET_TABLE_+0xe8>
  410536:	68 1a 00 00 00       	pushq  $0x1a
  41053b:	e9 40 fe ff ff       	jmpq   410380 <_init+0x20>

0000000000410540 <_ZNSo9_M_insertIyEERSoT_@plt>:
  410540:	ff 25 aa 6b 22 00    	jmpq   *0x226baa(%rip)        # 6370f0 <_GLOBAL_OFFSET_TABLE_+0xf0>
  410546:	68 1b 00 00 00       	pushq  $0x1b
  41054b:	e9 30 fe ff ff       	jmpq   410380 <_init+0x20>

0000000000410550 <_ZNSo9_M_insertImEERSoT_@plt>:
  410550:	ff 25 a2 6b 22 00    	jmpq   *0x226ba2(%rip)        # 6370f8 <_GLOBAL_OFFSET_TABLE_+0xf8>
  410556:	68 1c 00 00 00       	pushq  $0x1c
  41055b:	e9 20 fe ff ff       	jmpq   410380 <_init+0x20>

0000000000410560 <_ZNSo5flushEv@plt>:
  410560:	ff 25 9a 6b 22 00    	jmpq   *0x226b9a(%rip)        # 637100 <_GLOBAL_OFFSET_TABLE_+0x100>
  410566:	68 1d 00 00 00       	pushq  $0x1d
  41056b:	e9 10 fe ff ff       	jmpq   410380 <_init+0x20>

0000000000410570 <_ZSt18_Rb_tree_incrementPSt18_Rb_tree_node_base@plt>:
  410570:	ff 25 92 6b 22 00    	jmpq   *0x226b92(%rip)        # 637108 <_GLOBAL_OFFSET_TABLE_+0x108>
  410576:	68 1e 00 00 00       	pushq  $0x1e
  41057b:	e9 00 fe ff ff       	jmpq   410380 <_init+0x20>

0000000000410580 <_ZSt19__throw_logic_errorPKc@plt>:
  410580:	ff 25 8a 6b 22 00    	jmpq   *0x226b8a(%rip)        # 637110 <_GLOBAL_OFFSET_TABLE_+0x110>
  410586:	68 1f 00 00 00       	pushq  $0x1f
  41058b:	e9 f0 fd ff ff       	jmpq   410380 <_init+0x20>

0000000000410590 <sscanf@plt>:
  410590:	ff 25 82 6b 22 00    	jmpq   *0x226b82(%rip)        # 637118 <_GLOBAL_OFFSET_TABLE_+0x118>
  410596:	68 20 00 00 00       	pushq  $0x20
  41059b:	e9 e0 fd ff ff       	jmpq   410380 <_init+0x20>

00000000004105a0 <open@plt>:
  4105a0:	ff 25 7a 6b 22 00    	jmpq   *0x226b7a(%rip)        # 637120 <_GLOBAL_OFFSET_TABLE_+0x120>
  4105a6:	68 21 00 00 00       	pushq  $0x21
  4105ab:	e9 d0 fd ff ff       	jmpq   410380 <_init+0x20>

00000000004105b0 <sleep@plt>:
  4105b0:	ff 25 72 6b 22 00    	jmpq   *0x226b72(%rip)        # 637128 <_GLOBAL_OFFSET_TABLE_+0x128>
  4105b6:	68 22 00 00 00       	pushq  $0x22
  4105bb:	e9 c0 fd ff ff       	jmpq   410380 <_init+0x20>

00000000004105c0 <pthread_mutex_unlock@plt>:
  4105c0:	ff 25 6a 6b 22 00    	jmpq   *0x226b6a(%rip)        # 637130 <_GLOBAL_OFFSET_TABLE_+0x130>
  4105c6:	68 23 00 00 00       	pushq  $0x23
  4105cb:	e9 b0 fd ff ff       	jmpq   410380 <_init+0x20>

00000000004105d0 <sem_post@plt>:
  4105d0:	ff 25 62 6b 22 00    	jmpq   *0x226b62(%rip)        # 637138 <_GLOBAL_OFFSET_TABLE_+0x138>
  4105d6:	68 24 00 00 00       	pushq  $0x24
  4105db:	e9 a0 fd ff ff       	jmpq   410380 <_init+0x20>

00000000004105e0 <sched_setaffinity@plt>:
  4105e0:	ff 25 5a 6b 22 00    	jmpq   *0x226b5a(%rip)        # 637140 <_GLOBAL_OFFSET_TABLE_+0x140>
  4105e6:	68 25 00 00 00       	pushq  $0x25
  4105eb:	e9 90 fd ff ff       	jmpq   410380 <_init+0x20>

00000000004105f0 <memcpy@plt>:
  4105f0:	ff 25 52 6b 22 00    	jmpq   *0x226b52(%rip)        # 637148 <_GLOBAL_OFFSET_TABLE_+0x148>
  4105f6:	68 26 00 00 00       	pushq  $0x26
  4105fb:	e9 80 fd ff ff       	jmpq   410380 <_init+0x20>

0000000000410600 <perror@plt>:
  410600:	ff 25 4a 6b 22 00    	jmpq   *0x226b4a(%rip)        # 637150 <_GLOBAL_OFFSET_TABLE_+0x150>
  410606:	68 27 00 00 00       	pushq  $0x27
  41060b:	e9 70 fd ff ff       	jmpq   410380 <_init+0x20>

0000000000410610 <__cxa_atexit@plt>:
  410610:	ff 25 42 6b 22 00    	jmpq   *0x226b42(%rip)        # 637158 <_GLOBAL_OFFSET_TABLE_+0x158>
  410616:	68 28 00 00 00       	pushq  $0x28
  41061b:	e9 60 fd ff ff       	jmpq   410380 <_init+0x20>

0000000000410620 <pthread_self@plt>:
  410620:	ff 25 3a 6b 22 00    	jmpq   *0x226b3a(%rip)        # 637160 <_GLOBAL_OFFSET_TABLE_+0x160>
  410626:	68 29 00 00 00       	pushq  $0x29
  41062b:	e9 50 fd ff ff       	jmpq   410380 <_init+0x20>

0000000000410630 <sem_getvalue@plt>:
  410630:	ff 25 32 6b 22 00    	jmpq   *0x226b32(%rip)        # 637168 <_GLOBAL_OFFSET_TABLE_+0x168>
  410636:	68 2a 00 00 00       	pushq  $0x2a
  41063b:	e9 40 fd ff ff       	jmpq   410380 <_init+0x20>

0000000000410640 <_ZNSt13basic_filebufIcSt11char_traitsIcEE4openEPKcSt13_Ios_Openmode@plt>:
  410640:	ff 25 2a 6b 22 00    	jmpq   *0x226b2a(%rip)        # 637170 <_GLOBAL_OFFSET_TABLE_+0x170>
  410646:	68 2b 00 00 00       	pushq  $0x2b
  41064b:	e9 30 fd ff ff       	jmpq   410380 <_init+0x20>

0000000000410650 <_ZdlPv@plt>:
  410650:	ff 25 22 6b 22 00    	jmpq   *0x226b22(%rip)        # 637178 <_GLOBAL_OFFSET_TABLE_+0x178>
  410656:	68 2c 00 00 00       	pushq  $0x2c
  41065b:	e9 20 fd ff ff       	jmpq   410380 <_init+0x20>

0000000000410660 <_ZStlsISt11char_traitsIcEERSt13basic_ostreamIcT_ES5_PKc@plt>:
  410660:	ff 25 1a 6b 22 00    	jmpq   *0x226b1a(%rip)        # 637180 <_GLOBAL_OFFSET_TABLE_+0x180>
  410666:	68 2d 00 00 00       	pushq  $0x2d
  41066b:	e9 10 fd ff ff       	jmpq   410380 <_init+0x20>

0000000000410670 <fclose@plt>:
  410670:	ff 25 12 6b 22 00    	jmpq   *0x226b12(%rip)        # 637188 <_GLOBAL_OFFSET_TABLE_+0x188>
  410676:	68 2e 00 00 00       	pushq  $0x2e
  41067b:	e9 00 fd ff ff       	jmpq   410380 <_init+0x20>

0000000000410680 <_Znwm@plt>:
  410680:	ff 25 0a 6b 22 00    	jmpq   *0x226b0a(%rip)        # 637190 <_GLOBAL_OFFSET_TABLE_+0x190>
  410686:	68 2f 00 00 00       	pushq  $0x2f
  41068b:	e9 f0 fc ff ff       	jmpq   410380 <_init+0x20>

0000000000410690 <_ZNSt13basic_filebufIcSt11char_traitsIcEEC1Ev@plt>:
  410690:	ff 25 02 6b 22 00    	jmpq   *0x226b02(%rip)        # 637198 <_GLOBAL_OFFSET_TABLE_+0x198>
  410696:	68 30 00 00 00       	pushq  $0x30
  41069b:	e9 e0 fc ff ff       	jmpq   410380 <_init+0x20>

00000000004106a0 <_ZSt18_Rb_tree_decrementPSt18_Rb_tree_node_base@plt>:
  4106a0:	ff 25 fa 6a 22 00    	jmpq   *0x226afa(%rip)        # 6371a0 <_GLOBAL_OFFSET_TABLE_+0x1a0>
  4106a6:	68 31 00 00 00       	pushq  $0x31
  4106ab:	e9 d0 fc ff ff       	jmpq   410380 <_init+0x20>

00000000004106b0 <sem_wait@plt>:
  4106b0:	ff 25 f2 6a 22 00    	jmpq   *0x226af2(%rip)        # 6371a8 <_GLOBAL_OFFSET_TABLE_+0x1a8>
  4106b6:	68 32 00 00 00       	pushq  $0x32
  4106bb:	e9 c0 fc ff ff       	jmpq   410380 <_init+0x20>

00000000004106c0 <_ZSt16__ostream_insertIcSt11char_traitsIcEERSt13basic_ostreamIT_T0_ES6_PKS3_l@plt>:
  4106c0:	ff 25 ea 6a 22 00    	jmpq   *0x226aea(%rip)        # 6371b0 <_GLOBAL_OFFSET_TABLE_+0x1b0>
  4106c6:	68 33 00 00 00       	pushq  $0x33
  4106cb:	e9 b0 fc ff ff       	jmpq   410380 <_init+0x20>

00000000004106d0 <_ZNKSt5ctypeIcE13_M_widen_initEv@plt>:
  4106d0:	ff 25 e2 6a 22 00    	jmpq   *0x226ae2(%rip)        # 6371b8 <_GLOBAL_OFFSET_TABLE_+0x1b8>
  4106d6:	68 34 00 00 00       	pushq  $0x34
  4106db:	e9 a0 fc ff ff       	jmpq   410380 <_init+0x20>

00000000004106e0 <pthread_mutex_destroy@plt>:
  4106e0:	ff 25 da 6a 22 00    	jmpq   *0x226ada(%rip)        # 6371c0 <_GLOBAL_OFFSET_TABLE_+0x1c0>
  4106e6:	68 35 00 00 00       	pushq  $0x35
  4106eb:	e9 90 fc ff ff       	jmpq   410380 <_init+0x20>

00000000004106f0 <fopen@plt>:
  4106f0:	ff 25 d2 6a 22 00    	jmpq   *0x226ad2(%rip)        # 6371c8 <_GLOBAL_OFFSET_TABLE_+0x1c8>
  4106f6:	68 36 00 00 00       	pushq  $0x36
  4106fb:	e9 80 fc ff ff       	jmpq   410380 <_init+0x20>

0000000000410700 <_ZNSt7__cxx1112basic_stringIcSt11char_traitsIcESaIcEE8_M_eraseEmm@plt>:
  410700:	ff 25 ca 6a 22 00    	jmpq   *0x226aca(%rip)        # 6371d0 <_GLOBAL_OFFSET_TABLE_+0x1d0>
  410706:	68 37 00 00 00       	pushq  $0x37
  41070b:	e9 70 fc ff ff       	jmpq   410380 <_init+0x20>

0000000000410710 <exit@plt>:
  410710:	ff 25 c2 6a 22 00    	jmpq   *0x226ac2(%rip)        # 6371d8 <_GLOBAL_OFFSET_TABLE_+0x1d8>
  410716:	68 38 00 00 00       	pushq  $0x38
  41071b:	e9 60 fc ff ff       	jmpq   410380 <_init+0x20>

0000000000410720 <_ZNSt7__cxx1112basic_stringIcSt11char_traitsIcESaIcEEaSEOS4_@plt>:
  410720:	ff 25 ba 6a 22 00    	jmpq   *0x226aba(%rip)        # 6371e0 <_GLOBAL_OFFSET_TABLE_+0x1e0>
  410726:	68 39 00 00 00       	pushq  $0x39
  41072b:	e9 50 fc ff ff       	jmpq   410380 <_init+0x20>

0000000000410730 <pread@plt>:
  410730:	ff 25 b2 6a 22 00    	jmpq   *0x226ab2(%rip)        # 6371e8 <_GLOBAL_OFFSET_TABLE_+0x1e8>
  410736:	68 3a 00 00 00       	pushq  $0x3a
  41073b:	e9 40 fc ff ff       	jmpq   410380 <_init+0x20>

0000000000410740 <_ZSt16__throw_bad_castv@plt>:
  410740:	ff 25 aa 6a 22 00    	jmpq   *0x226aaa(%rip)        # 6371f0 <_GLOBAL_OFFSET_TABLE_+0x1f0>
  410746:	68 3b 00 00 00       	pushq  $0x3b
  41074b:	e9 30 fc ff ff       	jmpq   410380 <_init+0x20>

0000000000410750 <_ZdaPv@plt>:
  410750:	ff 25 a2 6a 22 00    	jmpq   *0x226aa2(%rip)        # 6371f8 <_GLOBAL_OFFSET_TABLE_+0x1f8>
  410756:	68 3c 00 00 00       	pushq  $0x3c
  41075b:	e9 20 fc ff ff       	jmpq   410380 <_init+0x20>

0000000000410760 <_ZNSt9basic_iosIcSt11char_traitsIcEE4initEPSt15basic_streambufIcS1_E@plt>:
  410760:	ff 25 9a 6a 22 00    	jmpq   *0x226a9a(%rip)        # 637200 <_GLOBAL_OFFSET_TABLE_+0x200>
  410766:	68 3d 00 00 00       	pushq  $0x3d
  41076b:	e9 10 fc ff ff       	jmpq   410380 <_init+0x20>

0000000000410770 <putchar@plt>:
  410770:	ff 25 92 6a 22 00    	jmpq   *0x226a92(%rip)        # 637208 <_GLOBAL_OFFSET_TABLE_+0x208>
  410776:	68 3e 00 00 00       	pushq  $0x3e
  41077b:	e9 00 fc ff ff       	jmpq   410380 <_init+0x20>

0000000000410780 <_ZNSt6localeD1Ev@plt>:
  410780:	ff 25 8a 6a 22 00    	jmpq   *0x226a8a(%rip)        # 637210 <_GLOBAL_OFFSET_TABLE_+0x210>
  410786:	68 3f 00 00 00       	pushq  $0x3f
  41078b:	e9 f0 fb ff ff       	jmpq   410380 <_init+0x20>

0000000000410790 <usleep@plt>:
  410790:	ff 25 82 6a 22 00    	jmpq   *0x226a82(%rip)        # 637218 <_GLOBAL_OFFSET_TABLE_+0x218>
  410796:	68 40 00 00 00       	pushq  $0x40
  41079b:	e9 e0 fb ff ff       	jmpq   410380 <_init+0x20>

00000000004107a0 <read@plt>:
  4107a0:	ff 25 7a 6a 22 00    	jmpq   *0x226a7a(%rip)        # 637220 <_GLOBAL_OFFSET_TABLE_+0x220>
  4107a6:	68 41 00 00 00       	pushq  $0x41
  4107ab:	e9 d0 fb ff ff       	jmpq   410380 <_init+0x20>

00000000004107b0 <__cxa_rethrow@plt>:
  4107b0:	ff 25 72 6a 22 00    	jmpq   *0x226a72(%rip)        # 637228 <_GLOBAL_OFFSET_TABLE_+0x228>
  4107b6:	68 42 00 00 00       	pushq  $0x42
  4107bb:	e9 c0 fb ff ff       	jmpq   410380 <_init+0x20>

00000000004107c0 <getpid@plt>:
  4107c0:	ff 25 6a 6a 22 00    	jmpq   *0x226a6a(%rip)        # 637230 <_GLOBAL_OFFSET_TABLE_+0x230>
  4107c6:	68 43 00 00 00       	pushq  $0x43
  4107cb:	e9 b0 fb ff ff       	jmpq   410380 <_init+0x20>

00000000004107d0 <pthread_mutex_lock@plt>:
  4107d0:	ff 25 62 6a 22 00    	jmpq   *0x226a62(%rip)        # 637238 <_GLOBAL_OFFSET_TABLE_+0x238>
  4107d6:	68 44 00 00 00       	pushq  $0x44
  4107db:	e9 a0 fb ff ff       	jmpq   410380 <_init+0x20>

00000000004107e0 <pthread_mutex_init@plt>:
  4107e0:	ff 25 5a 6a 22 00    	jmpq   *0x226a5a(%rip)        # 637240 <_GLOBAL_OFFSET_TABLE_+0x240>
  4107e6:	68 45 00 00 00       	pushq  $0x45
  4107eb:	e9 90 fb ff ff       	jmpq   410380 <_init+0x20>

00000000004107f0 <_ZSt24__throw_out_of_range_fmtPKcz@plt>:
  4107f0:	ff 25 52 6a 22 00    	jmpq   *0x226a52(%rip)        # 637248 <_GLOBAL_OFFSET_TABLE_+0x248>
  4107f6:	68 46 00 00 00       	pushq  $0x46
  4107fb:	e9 80 fb ff ff       	jmpq   410380 <_init+0x20>

0000000000410800 <_ZNSt8ios_base4InitC1Ev@plt>:
  410800:	ff 25 4a 6a 22 00    	jmpq   *0x226a4a(%rip)        # 637250 <_GLOBAL_OFFSET_TABLE_+0x250>
  410806:	68 47 00 00 00       	pushq  $0x47
  41080b:	e9 70 fb ff ff       	jmpq   410380 <_init+0x20>

0000000000410810 <_ZNSt7__cxx1112basic_stringIcSt11char_traitsIcESaIcEE10_M_replaceEmmPKcm@plt>:
  410810:	ff 25 42 6a 22 00    	jmpq   *0x226a42(%rip)        # 637258 <_GLOBAL_OFFSET_TABLE_+0x258>
  410816:	68 48 00 00 00       	pushq  $0x48
  41081b:	e9 60 fb ff ff       	jmpq   410380 <_init+0x20>

0000000000410820 <_ZNSt13basic_filebufIcSt11char_traitsIcEED1Ev@plt>:
  410820:	ff 25 3a 6a 22 00    	jmpq   *0x226a3a(%rip)        # 637260 <_GLOBAL_OFFSET_TABLE_+0x260>
  410826:	68 49 00 00 00       	pushq  $0x49
  41082b:	e9 50 fb ff ff       	jmpq   410380 <_init+0x20>

0000000000410830 <fgets@plt>:
  410830:	ff 25 32 6a 22 00    	jmpq   *0x226a32(%rip)        # 637268 <_GLOBAL_OFFSET_TABLE_+0x268>
  410836:	68 4a 00 00 00       	pushq  $0x4a
  41083b:	e9 40 fb ff ff       	jmpq   410380 <_init+0x20>

0000000000410840 <_ZNKSt7__cxx1115basic_stringbufIcSt11char_traitsIcESaIcEE3strEv@plt>:
  410840:	ff 25 2a 6a 22 00    	jmpq   *0x226a2a(%rip)        # 637270 <_GLOBAL_OFFSET_TABLE_+0x270>
  410846:	68 4b 00 00 00       	pushq  $0x4b
  41084b:	e9 30 fb ff ff       	jmpq   410380 <_init+0x20>

0000000000410850 <snprintf@plt>:
  410850:	ff 25 22 6a 22 00    	jmpq   *0x226a22(%rip)        # 637278 <_GLOBAL_OFFSET_TABLE_+0x278>
  410856:	68 4c 00 00 00       	pushq  $0x4c
  41085b:	e9 20 fb ff ff       	jmpq   410380 <_init+0x20>

0000000000410860 <pthread_setaffinity_np@plt>:
  410860:	ff 25 1a 6a 22 00    	jmpq   *0x226a1a(%rip)        # 637280 <_GLOBAL_OFFSET_TABLE_+0x280>
  410866:	68 4d 00 00 00       	pushq  $0x4d
  41086b:	e9 10 fb ff ff       	jmpq   410380 <_init+0x20>

0000000000410870 <_ZNSo9_M_insertIdEERSoT_@plt>:
  410870:	ff 25 12 6a 22 00    	jmpq   *0x226a12(%rip)        # 637288 <_GLOBAL_OFFSET_TABLE_+0x288>
  410876:	68 4e 00 00 00       	pushq  $0x4e
  41087b:	e9 00 fb ff ff       	jmpq   410380 <_init+0x20>

0000000000410880 <gettimeofday@plt>:
  410880:	ff 25 0a 6a 22 00    	jmpq   *0x226a0a(%rip)        # 637290 <_GLOBAL_OFFSET_TABLE_+0x290>
  410886:	68 4f 00 00 00       	pushq  $0x4f
  41088b:	e9 f0 fa ff ff       	jmpq   410380 <_init+0x20>

0000000000410890 <memmove@plt>:
  410890:	ff 25 02 6a 22 00    	jmpq   *0x226a02(%rip)        # 637298 <_GLOBAL_OFFSET_TABLE_+0x298>
  410896:	68 50 00 00 00       	pushq  $0x50
  41089b:	e9 e0 fa ff ff       	jmpq   410380 <_init+0x20>

00000000004108a0 <__cxa_end_catch@plt>:
  4108a0:	ff 25 fa 69 22 00    	jmpq   *0x2269fa(%rip)        # 6372a0 <_GLOBAL_OFFSET_TABLE_+0x2a0>
  4108a6:	68 51 00 00 00       	pushq  $0x51
  4108ab:	e9 d0 fa ff ff       	jmpq   410380 <_init+0x20>

00000000004108b0 <__gxx_personality_v0@plt>:
  4108b0:	ff 25 f2 69 22 00    	jmpq   *0x2269f2(%rip)        # 6372a8 <_GLOBAL_OFFSET_TABLE_+0x2a8>
  4108b6:	68 52 00 00 00       	pushq  $0x52
  4108bb:	e9 c0 fa ff ff       	jmpq   410380 <_init+0x20>

00000000004108c0 <__pthread_key_create@plt>:
  4108c0:	ff 25 ea 69 22 00    	jmpq   *0x2269ea(%rip)        # 6372b0 <_GLOBAL_OFFSET_TABLE_+0x2b0>
  4108c6:	68 53 00 00 00       	pushq  $0x53
  4108cb:	e9 b0 fa ff ff       	jmpq   410380 <_init+0x20>

00000000004108d0 <_ZNSt7__cxx1119basic_istringstreamIcSt11char_traitsIcESaIcEEC1ERKNS_12basic_stringIcS2_S3_EESt13_Ios_Openmode@plt>:
  4108d0:	ff 25 e2 69 22 00    	jmpq   *0x2269e2(%rip)        # 6372b8 <_GLOBAL_OFFSET_TABLE_+0x2b8>
  4108d6:	68 54 00 00 00       	pushq  $0x54
  4108db:	e9 a0 fa ff ff       	jmpq   410380 <_init+0x20>

00000000004108e0 <_ZNSt9basic_iosIcSt11char_traitsIcEE5clearESt12_Ios_Iostate@plt>:
  4108e0:	ff 25 da 69 22 00    	jmpq   *0x2269da(%rip)        # 6372c0 <_GLOBAL_OFFSET_TABLE_+0x2c0>
  4108e6:	68 55 00 00 00       	pushq  $0x55
  4108eb:	e9 90 fa ff ff       	jmpq   410380 <_init+0x20>

00000000004108f0 <__cxa_throw@plt>:
  4108f0:	ff 25 d2 69 22 00    	jmpq   *0x2269d2(%rip)        # 6372c8 <_GLOBAL_OFFSET_TABLE_+0x2c8>
  4108f6:	68 56 00 00 00       	pushq  $0x56
  4108fb:	e9 80 fa ff ff       	jmpq   410380 <_init+0x20>

0000000000410900 <_ZNSolsEi@plt>:
  410900:	ff 25 ca 69 22 00    	jmpq   *0x2269ca(%rip)        # 6372d0 <_GLOBAL_OFFSET_TABLE_+0x2d0>
  410906:	68 57 00 00 00       	pushq  $0x57
  41090b:	e9 70 fa ff ff       	jmpq   410380 <_init+0x20>

0000000000410910 <_ZNKSt7__cxx1112basic_stringIcSt11char_traitsIcESaIcEE4findEPKcmm@plt>:
  410910:	ff 25 c2 69 22 00    	jmpq   *0x2269c2(%rip)        # 6372d8 <_GLOBAL_OFFSET_TABLE_+0x2d8>
  410916:	68 58 00 00 00       	pushq  $0x58
  41091b:	e9 60 fa ff ff       	jmpq   410380 <_init+0x20>

0000000000410920 <_Unwind_Resume@plt>:
  410920:	ff 25 ba 69 22 00    	jmpq   *0x2269ba(%rip)        # 6372e0 <_GLOBAL_OFFSET_TABLE_+0x2e0>
  410926:	68 59 00 00 00       	pushq  $0x59
  41092b:	e9 50 fa ff ff       	jmpq   410380 <_init+0x20>

0000000000410930 <mmap@plt>:
  410930:	ff 25 b2 69 22 00    	jmpq   *0x2269b2(%rip)        # 6372e8 <_GLOBAL_OFFSET_TABLE_+0x2e8>
  410936:	68 5a 00 00 00       	pushq  $0x5a
  41093b:	e9 40 fa ff ff       	jmpq   410380 <_init+0x20>

0000000000410940 <umask@plt>:
  410940:	ff 25 aa 69 22 00    	jmpq   *0x2269aa(%rip)        # 6372f0 <_GLOBAL_OFFSET_TABLE_+0x2f0>
  410946:	68 5b 00 00 00       	pushq  $0x5b
  41094b:	e9 30 fa ff ff       	jmpq   410380 <_init+0x20>

0000000000410950 <modf@plt>:
  410950:	ff 25 a2 69 22 00    	jmpq   *0x2269a2(%rip)        # 6372f8 <_GLOBAL_OFFSET_TABLE_+0x2f8>
  410956:	68 5c 00 00 00       	pushq  $0x5c
  41095b:	e9 20 fa ff ff       	jmpq   410380 <_init+0x20>

0000000000410960 <pthread_getaffinity_np@plt>:
  410960:	ff 25 9a 69 22 00    	jmpq   *0x22699a(%rip)        # 637300 <_GLOBAL_OFFSET_TABLE_+0x300>
  410966:	68 5d 00 00 00       	pushq  $0x5d
  41096b:	e9 10 fa ff ff       	jmpq   410380 <_init+0x20>

0000000000410970 <_ZNSt7__cxx1112basic_stringIcSt11char_traitsIcESaIcEE9_M_createERmm@plt>:
  410970:	ff 25 92 69 22 00    	jmpq   *0x226992(%rip)        # 637308 <_GLOBAL_OFFSET_TABLE_+0x308>
  410976:	68 5e 00 00 00       	pushq  $0x5e
  41097b:	e9 00 fa ff ff       	jmpq   410380 <_init+0x20>

0000000000410980 <_ZNSt9basic_iosIcSt11char_traitsIcEE5rdbufEPSt15basic_streambufIcS1_E@plt>:
  410980:	ff 25 8a 69 22 00    	jmpq   *0x22698a(%rip)        # 637310 <_GLOBAL_OFFSET_TABLE_+0x310>
  410986:	68 5f 00 00 00       	pushq  $0x5f
  41098b:	e9 f0 f9 ff ff       	jmpq   410380 <_init+0x20>

0000000000410990 <close@plt>:
  410990:	ff 25 82 69 22 00    	jmpq   *0x226982(%rip)        # 637318 <_GLOBAL_OFFSET_TABLE_+0x318>
  410996:	68 60 00 00 00       	pushq  $0x60
  41099b:	e9 e0 f9 ff ff       	jmpq   410380 <_init+0x20>

00000000004109a0 <_ZNKSt7__cxx1112basic_stringIcSt11char_traitsIcESaIcEE5rfindEcm@plt>:
  4109a0:	ff 25 7a 69 22 00    	jmpq   *0x22697a(%rip)        # 637320 <_GLOBAL_OFFSET_TABLE_+0x320>
  4109a6:	68 61 00 00 00       	pushq  $0x61
  4109ab:	e9 d0 f9 ff ff       	jmpq   410380 <_init+0x20>

00000000004109b0 <_ZNSt9exceptionD1Ev@plt>:
  4109b0:	ff 25 72 69 22 00    	jmpq   *0x226972(%rip)        # 637328 <_GLOBAL_OFFSET_TABLE_+0x328>
  4109b6:	68 62 00 00 00       	pushq  $0x62
  4109bb:	e9 c0 f9 ff ff       	jmpq   410380 <_init+0x20>

00000000004109c0 <_ZNSt6localeC1Ev@plt>:
  4109c0:	ff 25 6a 69 22 00    	jmpq   *0x22696a(%rip)        # 637330 <_GLOBAL_OFFSET_TABLE_+0x330>
  4109c6:	68 63 00 00 00       	pushq  $0x63
  4109cb:	e9 b0 f9 ff ff       	jmpq   410380 <_init+0x20>

00000000004109d0 <_ZNSt8ios_base4InitD1Ev@plt>:
  4109d0:	ff 25 62 69 22 00    	jmpq   *0x226962(%rip)        # 637338 <_GLOBAL_OFFSET_TABLE_+0x338>
  4109d6:	68 64 00 00 00       	pushq  $0x64
  4109db:	e9 a0 f9 ff ff       	jmpq   410380 <_init+0x20>

Disassembly of section .text:

00000000004109e0 <_ZN13SafeMsrHandle9getCoreIdEv.part.35>:
  4109e0:	bf 08 00 00 00       	mov    $0x8,%edi
  4109e5:	48 83 ec 08          	sub    $0x8,%rsp
  4109e9:	e8 f2 fa ff ff       	callq  4104e0 <__cxa_allocate_exception@plt>
  4109ee:	ba b0 09 41 00       	mov    $0x4109b0,%edx
  4109f3:	48 c7 00 08 78 63 00 	movq   $0x637808,(%rax)
  4109fa:	be 40 7a 63 00       	mov    $0x637a40,%esi
  4109ff:	48 89 c7             	mov    %rax,%rdi
  410a02:	e8 e9 fe ff ff       	callq  4108f0 <__cxa_throw@plt>
  410a07:	66 0f 1f 84 00 00 00 	nopw   0x0(%rax,%rax,1)
  410a0e:	00 00 

0000000000410a10 <main>:
  410a10:	48 83 ec 68          	sub    $0x68,%rsp
  410a14:	31 c0                	xor    %eax,%eax
  410a16:	e8 15 0e 00 00       	callq  411830 <perf_init>
  410a1b:	31 ff                	xor    %edi,%edi
  410a1d:	e8 0e 05 00 00       	callq  410f30 <microbenchmark_mode>
  410a22:	31 c0                	xor    %eax,%eax
  410a24:	e8 57 05 00 00       	callq  410f80 <microbenchmark_get_mul_latency>
  410a29:	bf 01 00 00 00       	mov    $0x1,%edi
  410a2e:	f2 0f 11 44 24 58    	movsd  %xmm0,0x58(%rsp)
  410a34:	e8 f7 04 00 00       	callq  410f30 <microbenchmark_mode>
  410a39:	31 c0                	xor    %eax,%eax
  410a3b:	e8 60 05 00 00       	callq  410fa0 <microbenchmark_get_mul_throughput>
  410a40:	bf 02 00 00 00       	mov    $0x2,%edi
  410a45:	f2 0f 11 4c 24 48    	movsd  %xmm1,0x48(%rsp)
  410a4b:	f2 0f 11 44 24 50    	movsd  %xmm0,0x50(%rsp)
  410a51:	e8 da 04 00 00       	callq  410f30 <microbenchmark_mode>
  410a56:	31 c0                	xor    %eax,%eax
  410a58:	e8 83 05 00 00       	callq  410fe0 <microbenchmark_get_div_latency>
  410a5d:	bf 03 00 00 00       	mov    $0x3,%edi
  410a62:	f2 0f 11 44 24 40    	movsd  %xmm0,0x40(%rsp)
  410a68:	e8 c3 04 00 00       	callq  410f30 <microbenchmark_mode>
  410a6d:	31 c0                	xor    %eax,%eax
  410a6f:	e8 9c 05 00 00       	callq  411010 <microbenchmark_get_div_throughput>
  410a74:	bf 06 00 00 00       	mov    $0x6,%edi
  410a79:	f2 0f 11 4c 24 30    	movsd  %xmm1,0x30(%rsp)
  410a7f:	f2 0f 11 44 24 38    	movsd  %xmm0,0x38(%rsp)
  410a85:	e8 a6 04 00 00       	callq  410f30 <microbenchmark_mode>
  410a8a:	31 c0                	xor    %eax,%eax
  410a8c:	e8 ef 04 00 00       	callq  410f80 <microbenchmark_get_mul_latency>
  410a91:	bf 07 00 00 00       	mov    $0x7,%edi
  410a96:	f2 0f 11 44 24 28    	movsd  %xmm0,0x28(%rsp)
  410a9c:	e8 8f 04 00 00       	callq  410f30 <microbenchmark_mode>
  410aa1:	31 c0                	xor    %eax,%eax
  410aa3:	e8 f8 04 00 00       	callq  410fa0 <microbenchmark_get_mul_throughput>
  410aa8:	bf 04 00 00 00       	mov    $0x4,%edi
  410aad:	f2 0f 11 4c 24 18    	movsd  %xmm1,0x18(%rsp)
  410ab3:	f2 0f 11 44 24 20    	movsd  %xmm0,0x20(%rsp)
  410ab9:	e8 72 04 00 00       	callq  410f30 <microbenchmark_mode>
  410abe:	31 c0                	xor    %eax,%eax
  410ac0:	e8 1b 05 00 00       	callq  410fe0 <microbenchmark_get_div_latency>
  410ac5:	bf 05 00 00 00       	mov    $0x5,%edi
  410aca:	f2 0f 11 44 24 10    	movsd  %xmm0,0x10(%rsp)
  410ad0:	e8 5b 04 00 00       	callq  410f30 <microbenchmark_mode>
  410ad5:	31 c0                	xor    %eax,%eax
  410ad7:	e8 34 05 00 00       	callq  411010 <microbenchmark_get_div_throughput>
  410adc:	f2 44 0f 10 64 24 58 	movsd  0x58(%rsp),%xmm12
  410ae3:	bf 90 c8 42 00       	mov    $0x42c890,%edi
  410ae8:	f2 0f 11 44 24 08    	movsd  %xmm0,0x8(%rsp)
  410aee:	b8 01 00 00 00       	mov    $0x1,%eax
  410af3:	66 41 0f 28 c4       	movapd %xmm12,%xmm0
  410af8:	f2 0f 11 0c 24       	movsd  %xmm1,(%rsp)
  410afd:	e8 be f8 ff ff       	callq  4103c0 <printf@plt>
  410b02:	f2 44 0f 10 5c 24 50 	movsd  0x50(%rsp),%xmm11
  410b09:	bf b8 c8 42 00       	mov    $0x42c8b8,%edi
  410b0e:	b8 01 00 00 00       	mov    $0x1,%eax
  410b13:	66 41 0f 28 c3       	movapd %xmm11,%xmm0
  410b18:	e8 a3 f8 ff ff       	callq  4103c0 <printf@plt>
  410b1d:	f2 44 0f 10 54 24 48 	movsd  0x48(%rsp),%xmm10
  410b24:	bf e0 c8 42 00       	mov    $0x42c8e0,%edi
  410b29:	b8 01 00 00 00       	mov    $0x1,%eax
  410b2e:	66 41 0f 28 c2       	movapd %xmm10,%xmm0
  410b33:	e8 88 f8 ff ff       	callq  4103c0 <printf@plt>
  410b38:	bf 0a 00 00 00       	mov    $0xa,%edi
  410b3d:	e8 2e fc ff ff       	callq  410770 <putchar@plt>
  410b42:	f2 44 0f 10 4c 24 40 	movsd  0x40(%rsp),%xmm9
  410b49:	bf 08 c9 42 00       	mov    $0x42c908,%edi
  410b4e:	b8 01 00 00 00       	mov    $0x1,%eax
  410b53:	66 41 0f 28 c1       	movapd %xmm9,%xmm0
  410b58:	e8 63 f8 ff ff       	callq  4103c0 <printf@plt>
  410b5d:	f2 44 0f 10 44 24 38 	movsd  0x38(%rsp),%xmm8
  410b64:	bf 30 c9 42 00       	mov    $0x42c930,%edi
  410b69:	b8 01 00 00 00       	mov    $0x1,%eax
  410b6e:	66 41 0f 28 c0       	movapd %xmm8,%xmm0
  410b73:	e8 48 f8 ff ff       	callq  4103c0 <printf@plt>
  410b78:	f2 0f 10 7c 24 30    	movsd  0x30(%rsp),%xmm7
  410b7e:	bf 58 c9 42 00       	mov    $0x42c958,%edi
  410b83:	b8 01 00 00 00       	mov    $0x1,%eax
  410b88:	66 0f 28 c7          	movapd %xmm7,%xmm0
  410b8c:	e8 2f f8 ff ff       	callq  4103c0 <printf@plt>
  410b91:	bf 0a 00 00 00       	mov    $0xa,%edi
  410b96:	e8 d5 fb ff ff       	callq  410770 <putchar@plt>
  410b9b:	f2 0f 10 74 24 28    	movsd  0x28(%rsp),%xmm6
  410ba1:	bf 80 c9 42 00       	mov    $0x42c980,%edi
  410ba6:	b8 01 00 00 00       	mov    $0x1,%eax
  410bab:	66 0f 28 c6          	movapd %xmm6,%xmm0
  410baf:	e8 0c f8 ff ff       	callq  4103c0 <printf@plt>
  410bb4:	f2 0f 10 6c 24 20    	movsd  0x20(%rsp),%xmm5
  410bba:	bf a8 c9 42 00       	mov    $0x42c9a8,%edi
  410bbf:	b8 01 00 00 00       	mov    $0x1,%eax
  410bc4:	66 0f 28 c5          	movapd %xmm5,%xmm0
  410bc8:	e8 f3 f7 ff ff       	callq  4103c0 <printf@plt>
  410bcd:	f2 0f 10 64 24 18    	movsd  0x18(%rsp),%xmm4
  410bd3:	bf d0 c9 42 00       	mov    $0x42c9d0,%edi
  410bd8:	b8 01 00 00 00       	mov    $0x1,%eax
  410bdd:	66 0f 28 c4          	movapd %xmm4,%xmm0
  410be1:	e8 da f7 ff ff       	callq  4103c0 <printf@plt>
  410be6:	bf 0a 00 00 00       	mov    $0xa,%edi
  410beb:	e8 80 fb ff ff       	callq  410770 <putchar@plt>
  410bf0:	f2 0f 10 5c 24 10    	movsd  0x10(%rsp),%xmm3
  410bf6:	bf f8 c9 42 00       	mov    $0x42c9f8,%edi
  410bfb:	b8 01 00 00 00       	mov    $0x1,%eax
  410c00:	66 0f 28 c3          	movapd %xmm3,%xmm0
  410c04:	e8 b7 f7 ff ff       	callq  4103c0 <printf@plt>
  410c09:	f2 0f 10 54 24 08    	movsd  0x8(%rsp),%xmm2
  410c0f:	bf 20 ca 42 00       	mov    $0x42ca20,%edi
  410c14:	b8 01 00 00 00       	mov    $0x1,%eax
  410c19:	66 0f 28 c2          	movapd %xmm2,%xmm0
  410c1d:	e8 9e f7 ff ff       	callq  4103c0 <printf@plt>
  410c22:	f2 0f 10 0c 24       	movsd  (%rsp),%xmm1
  410c27:	bf 48 ca 42 00       	mov    $0x42ca48,%edi
  410c2c:	b8 01 00 00 00       	mov    $0x1,%eax
  410c31:	66 0f 28 c1          	movapd %xmm1,%xmm0
  410c35:	e8 86 f7 ff ff       	callq  4103c0 <printf@plt>
  410c3a:	bf 0a 00 00 00       	mov    $0xa,%edi
  410c3f:	e8 2c fb ff ff       	callq  410770 <putchar@plt>
  410c44:	31 c0                	xor    %eax,%eax
  410c46:	e8 15 0d 00 00       	callq  411960 <perf_done>
  410c4b:	31 c0                	xor    %eax,%eax
  410c4d:	48 83 c4 68          	add    $0x68,%rsp
  410c51:	c3                   	retq   
  410c52:	66 2e 0f 1f 84 00 00 	nopw   %cs:0x0(%rax,%rax,1)
  410c59:	00 00 00 
  410c5c:	0f 1f 40 00          	nopl   0x0(%rax)

0000000000410c60 <_GLOBAL__sub_I_cpu_clk_unhalted_thread_counter_start>:
  410c60:	48 83 ec 08          	sub    $0x8,%rsp
  410c64:	bf 18 7c 63 00       	mov    $0x637c18,%edi
  410c69:	e8 92 fb ff ff       	callq  410800 <_ZNSt8ios_base4InitC1Ev@plt>
  410c6e:	ba 48 73 63 00       	mov    $0x637348,%edx
  410c73:	be 18 7c 63 00       	mov    $0x637c18,%esi
  410c78:	bf d0 09 41 00       	mov    $0x4109d0,%edi
  410c7d:	48 83 c4 08          	add    $0x8,%rsp
  410c81:	e9 8a f9 ff ff       	jmpq   410610 <__cxa_atexit@plt>
  410c86:	66 2e 0f 1f 84 00 00 	nopw   %cs:0x0(%rax,%rax,1)
  410c8d:	00 00 00 

0000000000410c90 <_GLOBAL__sub_I_processIntanceMutex>:
  410c90:	48 83 ec 08          	sub    $0x8,%rsp
  410c94:	bf 98 7d 63 00       	mov    $0x637d98,%edi
  410c99:	e8 62 fb ff ff       	callq  410800 <_ZNSt8ios_base4InitC1Ev@plt>
  410c9e:	ba 48 73 63 00       	mov    $0x637348,%edx
  410ca3:	be 98 7d 63 00       	mov    $0x637d98,%esi
  410ca8:	bf d0 09 41 00       	mov    $0x4109d0,%edi
  410cad:	e8 5e f9 ff ff       	callq  410610 <__cxa_atexit@plt>
  410cb2:	48 c7 05 63 6f 22 00 	movq   $0x0,0x226f63(%rip)        # 637c20 <_ZN18ServerPCICFGUncore10socket2busE>
  410cb9:	00 00 00 00 
  410cbd:	48 c7 05 60 6f 22 00 	movq   $0x0,0x226f60(%rip)        # 637c28 <_ZN18ServerPCICFGUncore10socket2busE+0x8>
  410cc4:	00 00 00 00 
  410cc8:	ba 48 73 63 00       	mov    $0x637348,%edx
  410ccd:	48 c7 05 58 6f 22 00 	movq   $0x0,0x226f58(%rip)        # 637c30 <_ZN18ServerPCICFGUncore10socket2busE+0x10>
  410cd4:	00 00 00 00 
  410cd8:	be 20 7c 63 00       	mov    $0x637c20,%esi
  410cdd:	bf 50 65 42 00       	mov    $0x426550,%edi
  410ce2:	48 83 c4 08          	add    $0x8,%rsp
  410ce6:	e9 25 f9 ff ff       	jmpq   410610 <__cxa_atexit@plt>
  410ceb:	0f 1f 44 00 00       	nopl   0x0(%rax,%rax,1)

0000000000410cf0 <_GLOBAL__sub_I__ZN9MsrHandleC2Ej>:
  410cf0:	48 83 ec 08          	sub    $0x8,%rsp
  410cf4:	bf 99 7d 63 00       	mov    $0x637d99,%edi
  410cf9:	e8 02 fb ff ff       	callq  410800 <_ZNSt8ios_base4InitC1Ev@plt>
  410cfe:	ba 48 73 63 00       	mov    $0x637348,%edx
  410d03:	be 99 7d 63 00       	mov    $0x637d99,%esi
  410d08:	bf d0 09 41 00       	mov    $0x4109d0,%edi
  410d0d:	48 83 c4 08          	add    $0x8,%rsp
  410d11:	e9 fa f8 ff ff       	jmpq   410610 <__cxa_atexit@plt>
  410d16:	66 2e 0f 1f 84 00 00 	nopw   %cs:0x0(%rax,%rax,1)
  410d1d:	00 00 00 

0000000000410d20 <_GLOBAL__sub_I__ZN8ClientBWC2Ev>:
  410d20:	48 83 ec 08          	sub    $0x8,%rsp
  410d24:	bf 9a 7d 63 00       	mov    $0x637d9a,%edi
  410d29:	e8 d2 fa ff ff       	callq  410800 <_ZNSt8ios_base4InitC1Ev@plt>
  410d2e:	ba 48 73 63 00       	mov    $0x637348,%edx
  410d33:	be 9a 7d 63 00       	mov    $0x637d9a,%esi
  410d38:	bf d0 09 41 00       	mov    $0x4109d0,%edi
  410d3d:	48 83 c4 08          	add    $0x8,%rsp
  410d41:	e9 ca f8 ff ff       	jmpq   410610 <__cxa_atexit@plt>
  410d46:	66 2e 0f 1f 84 00 00 	nopw   %cs:0x0(%rax,%rax,1)
  410d4d:	00 00 00 

0000000000410d50 <_GLOBAL__sub_I__ZN9PciHandleC2Ejjjj>:
  410d50:	48 83 ec 08          	sub    $0x8,%rsp
  410d54:	bf ec 7d 63 00       	mov    $0x637dec,%edi
  410d59:	e8 a2 fa ff ff       	callq  410800 <_ZNSt8ios_base4InitC1Ev@plt>
  410d5e:	ba 48 73 63 00       	mov    $0x637348,%edx
  410d63:	be ec 7d 63 00       	mov    $0x637dec,%esi
  410d68:	bf d0 09 41 00       	mov    $0x4109d0,%edi
  410d6d:	e8 9e f8 ff ff       	callq  410610 <__cxa_atexit@plt>
  410d72:	48 c7 05 23 70 22 00 	movq   $0x0,0x227023(%rip)        # 637da0 <_ZN11PciHandleMM11mcfgRecordsE>
  410d79:	00 00 00 00 
  410d7d:	48 c7 05 20 70 22 00 	movq   $0x0,0x227020(%rip)        # 637da8 <_ZN11PciHandleMM11mcfgRecordsE+0x8>
  410d84:	00 00 00 00 
  410d88:	ba 48 73 63 00       	mov    $0x637348,%edx
  410d8d:	48 c7 05 18 70 22 00 	movq   $0x0,0x227018(%rip)        # 637db0 <_ZN11PciHandleMM11mcfgRecordsE+0x10>
  410d94:	00 00 00 00 
  410d98:	be a0 7d 63 00       	mov    $0x637da0,%esi
  410d9d:	bf a0 c6 42 00       	mov    $0x42c6a0,%edi
  410da2:	48 83 c4 08          	add    $0x8,%rsp
  410da6:	e9 65 f8 ff ff       	jmpq   410610 <__cxa_atexit@plt>
  410dab:	0f 1f 44 00 00       	nopl   0x0(%rax,%rax,1)

0000000000410db0 <_start>:
  410db0:	31 ed                	xor    %ebp,%ebp
  410db2:	49 89 d1             	mov    %rdx,%r9
  410db5:	5e                   	pop    %rsi
  410db6:	48 89 e2             	mov    %rsp,%rdx
  410db9:	48 83 e4 f0          	and    $0xfffffffffffffff0,%rsp
  410dbd:	50                   	push   %rax
  410dbe:	54                   	push   %rsp
  410dbf:	49 c7 c0 20 c8 42 00 	mov    $0x42c820,%r8
  410dc6:	48 c7 c1 b0 c7 42 00 	mov    $0x42c7b0,%rcx
  410dcd:	48 c7 c7 10 0a 41 00 	mov    $0x410a10,%rdi
  410dd4:	ff 15 16 62 22 00    	callq  *0x226216(%rip)        # 636ff0 <_DYNAMIC+0x220>
  410dda:	f4                   	hlt    
  410ddb:	0f 1f 44 00 00       	nopl   0x0(%rax,%rax,1)

0000000000410de0 <deregister_tm_clones>:
  410de0:	b8 ff 75 63 00       	mov    $0x6375ff,%eax
  410de5:	55                   	push   %rbp
  410de6:	48 2d f8 75 63 00    	sub    $0x6375f8,%rax
  410dec:	48 83 f8 0e          	cmp    $0xe,%rax
  410df0:	48 89 e5             	mov    %rsp,%rbp
  410df3:	76 1b                	jbe    410e10 <deregister_tm_clones+0x30>
  410df5:	b8 00 00 00 00       	mov    $0x0,%eax
  410dfa:	48 85 c0             	test   %rax,%rax
  410dfd:	74 11                	je     410e10 <deregister_tm_clones+0x30>
  410dff:	5d                   	pop    %rbp
  410e00:	bf f8 75 63 00       	mov    $0x6375f8,%edi
  410e05:	ff e0                	jmpq   *%rax
  410e07:	66 0f 1f 84 00 00 00 	nopw   0x0(%rax,%rax,1)
  410e0e:	00 00 
  410e10:	5d                   	pop    %rbp
  410e11:	c3                   	retq   
  410e12:	0f 1f 40 00          	nopl   0x0(%rax)
  410e16:	66 2e 0f 1f 84 00 00 	nopw   %cs:0x0(%rax,%rax,1)
  410e1d:	00 00 00 

0000000000410e20 <register_tm_clones>:
  410e20:	be f8 75 63 00       	mov    $0x6375f8,%esi
  410e25:	55                   	push   %rbp
  410e26:	48 81 ee f8 75 63 00 	sub    $0x6375f8,%rsi
  410e2d:	48 c1 fe 03          	sar    $0x3,%rsi
  410e31:	48 89 e5             	mov    %rsp,%rbp
  410e34:	48 89 f0             	mov    %rsi,%rax
  410e37:	48 c1 e8 3f          	shr    $0x3f,%rax
  410e3b:	48 01 c6             	add    %rax,%rsi
  410e3e:	48 d1 fe             	sar    %rsi
  410e41:	74 15                	je     410e58 <register_tm_clones+0x38>
  410e43:	b8 00 00 00 00       	mov    $0x0,%eax
  410e48:	48 85 c0             	test   %rax,%rax
  410e4b:	74 0b                	je     410e58 <register_tm_clones+0x38>
  410e4d:	5d                   	pop    %rbp
  410e4e:	bf f8 75 63 00       	mov    $0x6375f8,%edi
  410e53:	ff e0                	jmpq   *%rax
  410e55:	0f 1f 00             	nopl   (%rax)
  410e58:	5d                   	pop    %rbp
  410e59:	c3                   	retq   
  410e5a:	66 0f 1f 44 00 00    	nopw   0x0(%rax,%rax,1)

0000000000410e60 <__do_global_dtors_aux>:
  410e60:	80 3d 89 6d 22 00 00 	cmpb   $0x0,0x226d89(%rip)        # 637bf0 <completed.6917>
  410e67:	75 11                	jne    410e7a <__do_global_dtors_aux+0x1a>
  410e69:	55                   	push   %rbp
  410e6a:	48 89 e5             	mov    %rsp,%rbp
  410e6d:	e8 6e ff ff ff       	callq  410de0 <deregister_tm_clones>
  410e72:	5d                   	pop    %rbp
  410e73:	c6 05 76 6d 22 00 01 	movb   $0x1,0x226d76(%rip)        # 637bf0 <completed.6917>
  410e7a:	f3 c3                	repz retq 
  410e7c:	0f 1f 40 00          	nopl   0x0(%rax)

0000000000410e80 <frame_dummy>:
  410e80:	bf c8 6d 63 00       	mov    $0x636dc8,%edi
  410e85:	48 83 3f 00          	cmpq   $0x0,(%rdi)
  410e89:	75 05                	jne    410e90 <frame_dummy+0x10>
  410e8b:	eb 93                	jmp    410e20 <register_tm_clones>
  410e8d:	0f 1f 00             	nopl   (%rax)
  410e90:	b8 00 00 00 00       	mov    $0x0,%eax
  410e95:	48 85 c0             	test   %rax,%rax
  410e98:	74 f1                	je     410e8b <frame_dummy+0xb>
  410e9a:	55                   	push   %rbp
  410e9b:	48 89 e5             	mov    %rsp,%rbp
  410e9e:	ff d0                	callq  *%rax
  410ea0:	5d                   	pop    %rbp
  410ea1:	e9 7a ff ff ff       	jmpq   410e20 <register_tm_clones>
  410ea6:	66 2e 0f 1f 84 00 00 	nopw   %cs:0x0(%rax,%rax,1)
  410ead:	00 00 00 

0000000000410eb0 <dp_div>:
  410eb0:	48 83 ec 08          	sub    $0x8,%rsp
  410eb4:	31 c0                	xor    %eax,%eax
  410eb6:	e8 65 f5 ff ff       	callq  410420 <rand@plt>
  410ebb:	31 c0                	xor    %eax,%eax
  410ebd:	48 83 c4 08          	add    $0x8,%rsp
  410ec1:	e9 5a f5 ff ff       	jmpq   410420 <rand@plt>
  410ec6:	66 2e 0f 1f 84 00 00 	nopw   %cs:0x0(%rax,%rax,1)
  410ecd:	00 00 00 

0000000000410ed0 <dp_mul>:
  410ed0:	48 83 ec 08          	sub    $0x8,%rsp
  410ed4:	31 c0                	xor    %eax,%eax
  410ed6:	e8 45 f5 ff ff       	callq  410420 <rand@plt>
  410edb:	31 c0                	xor    %eax,%eax
  410edd:	48 83 c4 08          	add    $0x8,%rsp
  410ee1:	e9 3a f5 ff ff       	jmpq   410420 <rand@plt>
  410ee6:	66 2e 0f 1f 84 00 00 	nopw   %cs:0x0(%rax,%rax,1)
  410eed:	00 00 00 

0000000000410ef0 <sp_mul>:
  410ef0:	48 83 ec 08          	sub    $0x8,%rsp
  410ef4:	31 c0                	xor    %eax,%eax
  410ef6:	e8 25 f5 ff ff       	callq  410420 <rand@plt>
  410efb:	31 c0                	xor    %eax,%eax
  410efd:	48 83 c4 08          	add    $0x8,%rsp
  410f01:	e9 1a f5 ff ff       	jmpq   410420 <rand@plt>
  410f06:	66 2e 0f 1f 84 00 00 	nopw   %cs:0x0(%rax,%rax,1)
  410f0d:	00 00 00 

0000000000410f10 <sp_div>:
  410f10:	48 83 ec 08          	sub    $0x8,%rsp
  410f14:	31 c0                	xor    %eax,%eax
  410f16:	e8 05 f5 ff ff       	callq  410420 <rand@plt>
  410f1b:	31 c0                	xor    %eax,%eax
  410f1d:	48 83 c4 08          	add    $0x8,%rsp
  410f21:	e9 fa f4 ff ff       	jmpq   410420 <rand@plt>
  410f26:	66 2e 0f 1f 84 00 00 	nopw   %cs:0x0(%rax,%rax,1)
  410f2d:	00 00 00 

0000000000410f30 <microbenchmark_mode>:
  410f30:	83 ff 07             	cmp    $0x7,%edi
  410f33:	77 16                	ja     410f4b <microbenchmark_mode+0x1b>
  410f35:	89 ff                	mov    %edi,%edi
  410f37:	ff 24 fd 48 c8 42 00 	jmpq   *0x42c848(,%rdi,8)
  410f3e:	66 90                	xchg   %ax,%ax
  410f40:	48 c7 05 a5 6e 22 00 	movq   $0x410ed0,0x226ea5(%rip)        # 637df0 <benchmark_func>
  410f47:	d0 0e 41 00 
  410f4b:	f3 c3                	repz retq 
  410f4d:	0f 1f 00             	nopl   (%rax)
  410f50:	48 c7 05 95 6e 22 00 	movq   $0x410eb0,0x226e95(%rip)        # 637df0 <benchmark_func>
  410f57:	b0 0e 41 00 
  410f5b:	c3                   	retq   
  410f5c:	0f 1f 40 00          	nopl   0x0(%rax)
  410f60:	48 c7 05 85 6e 22 00 	movq   $0x410f10,0x226e85(%rip)        # 637df0 <benchmark_func>
  410f67:	10 0f 41 00 
  410f6b:	c3                   	retq   
  410f6c:	0f 1f 40 00          	nopl   0x0(%rax)
  410f70:	48 c7 05 75 6e 22 00 	movq   $0x410ef0,0x226e75(%rip)        # 637df0 <benchmark_func>
  410f77:	f0 0e 41 00 
  410f7b:	c3                   	retq   
  410f7c:	0f 1f 40 00          	nopl   0x0(%rax)

0000000000410f80 <microbenchmark_get_mul_latency>:
  410f80:	48 83 ec 08          	sub    $0x8,%rsp
  410f84:	31 c0                	xor    %eax,%eax
  410f86:	e8 85 09 00 00       	callq  411910 <cycles_count_start>
  410f8b:	31 c0                	xor    %eax,%eax
  410f8d:	e8 9e 09 00 00       	callq  411930 <cycles_count_stop>
  410f92:	66 0f ef c0          	pxor   %xmm0,%xmm0
  410f96:	48 83 c4 08          	add    $0x8,%rsp
  410f9a:	f2 48 0f 2a c0       	cvtsi2sd %rax,%xmm0
  410f9f:	c3                   	retq   

0000000000410fa0 <microbenchmark_get_mul_throughput>:
  410fa0:	48 83 ec 08          	sub    $0x8,%rsp
  410fa4:	31 c0                	xor    %eax,%eax
  410fa6:	e8 65 09 00 00       	callq  411910 <cycles_count_start>
  410fab:	31 c0                	xor    %eax,%eax
  410fad:	ff 15 3d 6e 22 00    	callq  *0x226e3d(%rip)        # 637df0 <benchmark_func>
  410fb3:	31 c0                	xor    %eax,%eax
  410fb5:	e8 76 09 00 00       	callq  411930 <cycles_count_stop>
  410fba:	66 0f ef c9          	pxor   %xmm1,%xmm1
  410fbe:	f2 0f 10 05 c2 b8 01 	movsd  0x1b8c2(%rip),%xmm0        # 42c888 <_IO_stdin_used+0x48>
  410fc5:	00 
  410fc6:	48 83 c4 08          	add    $0x8,%rsp
  410fca:	f2 48 0f 2a c8       	cvtsi2sd %rax,%xmm1
  410fcf:	f2 0f 5e c1          	divsd  %xmm1,%xmm0
  410fd3:	c3                   	retq   
  410fd4:	66 90                	xchg   %ax,%ax
  410fd6:	66 2e 0f 1f 84 00 00 	nopw   %cs:0x0(%rax,%rax,1)
  410fdd:	00 00 00 

0000000000410fe0 <microbenchmark_get_div_latency>:
  410fe0:	48 83 ec 08          	sub    $0x8,%rsp
  410fe4:	31 c0                	xor    %eax,%eax
  410fe6:	e8 25 09 00 00       	callq  411910 <cycles_count_start>
  410feb:	31 c0                	xor    %eax,%eax
  410fed:	ff 15 fd 6d 22 00    	callq  *0x226dfd(%rip)        # 637df0 <benchmark_func>
  410ff3:	31 c0                	xor    %eax,%eax
  410ff5:	e8 36 09 00 00       	callq  411930 <cycles_count_stop>
  410ffa:	66 0f ef c0          	pxor   %xmm0,%xmm0
  410ffe:	48 83 c4 08          	add    $0x8,%rsp
  411002:	f2 48 0f 2a c0       	cvtsi2sd %rax,%xmm0
  411007:	c3                   	retq   
  411008:	0f 1f 84 00 00 00 00 	nopl   0x0(%rax,%rax,1)
  41100f:	00 

0000000000411010 <microbenchmark_get_div_throughput>:
  411010:	48 83 ec 08          	sub    $0x8,%rsp
  411014:	31 c0                	xor    %eax,%eax
  411016:	e8 f5 08 00 00       	callq  411910 <cycles_count_start>
  41101b:	31 c0                	xor    %eax,%eax
  41101d:	ff 15 cd 6d 22 00    	callq  *0x226dcd(%rip)        # 637df0 <benchmark_func>
  411023:	31 c0                	xor    %eax,%eax
  411025:	e8 06 09 00 00       	callq  411930 <cycles_count_stop>
  41102a:	66 0f ef c9          	pxor   %xmm1,%xmm1
  41102e:	f2 0f 10 05 52 b8 01 	movsd  0x1b852(%rip),%xmm0        # 42c888 <_IO_stdin_used+0x48>
  411035:	00 
  411036:	48 83 c4 08          	add    $0x8,%rsp
  41103a:	f2 48 0f 2a c8       	cvtsi2sd %rax,%xmm1
  41103f:	f2 0f 5e c1          	divsd  %xmm1,%xmm0
  411043:	c3                   	retq   
  411044:	66 2e 0f 1f 84 00 00 	nopw   %cs:0x0(%rax,%rax,1)
  41104b:	00 00 00 
  41104e:	66 90                	xchg   %ax,%ax

0000000000411050 <_Z15start_intel_pcmv>:
  411050:	55                   	push   %rbp
  411051:	53                   	push   %rbx
  411052:	ba 3e 00 00 00       	mov    $0x3e,%edx
  411057:	be 00 cb 42 00       	mov    $0x42cb00,%esi
  41105c:	bf 20 78 63 00       	mov    $0x637820,%edi
  411061:	48 83 ec 28          	sub    $0x28,%rsp
  411065:	e8 56 f6 ff ff       	callq  4106c0 <_ZSt16__ostream_insertIcSt11char_traitsIcEERSt13basic_ostreamIT_T0_ES6_PKS3_l@plt>
  41106a:	48 8b 05 af 67 22 00 	mov    0x2267af(%rip),%rax        # 637820 <_ZSt4cout@@GLIBCXX_3.4>
  411071:	48 8b 40 e8          	mov    -0x18(%rax),%rax
  411075:	48 8b 98 10 79 63 00 	mov    0x637910(%rax),%rbx
  41107c:	48 85 db             	test   %rbx,%rbx
  41107f:	0f 84 55 07 00 00    	je     4117da <_Z15start_intel_pcmv+0x78a>
  411085:	80 7b 38 00          	cmpb   $0x0,0x38(%rbx)
  411089:	0f 84 89 04 00 00    	je     411518 <_Z15start_intel_pcmv+0x4c8>
  41108f:	0f be 73 43          	movsbl 0x43(%rbx),%esi
  411093:	bf 20 78 63 00       	mov    $0x637820,%edi
  411098:	e8 03 f3 ff ff       	callq  4103a0 <_ZNSo3putEc@plt>
  41109d:	48 89 c7             	mov    %rax,%rdi
  4110a0:	e8 bb f4 ff ff       	callq  410560 <_ZNSo5flushEv@plt>
  4110a5:	ba 25 00 00 00       	mov    $0x25,%edx
  4110aa:	be 40 cb 42 00       	mov    $0x42cb40,%esi
  4110af:	bf 20 78 63 00       	mov    $0x637820,%edi
  4110b4:	e8 07 f6 ff ff       	callq  4106c0 <_ZSt16__ostream_insertIcSt11char_traitsIcEERSt13basic_ostreamIT_T0_ES6_PKS3_l@plt>
  4110b9:	48 8b 05 60 67 22 00 	mov    0x226760(%rip),%rax        # 637820 <_ZSt4cout@@GLIBCXX_3.4>
  4110c0:	48 8b 40 e8          	mov    -0x18(%rax),%rax
  4110c4:	48 8b 98 10 79 63 00 	mov    0x637910(%rax),%rbx
  4110cb:	48 85 db             	test   %rbx,%rbx
  4110ce:	0f 84 06 07 00 00    	je     4117da <_Z15start_intel_pcmv+0x78a>
  4110d4:	80 7b 38 00          	cmpb   $0x0,0x38(%rbx)
  4110d8:	0f 84 6a 04 00 00    	je     411548 <_Z15start_intel_pcmv+0x4f8>
  4110de:	0f be 73 43          	movsbl 0x43(%rbx),%esi
  4110e2:	bf 20 78 63 00       	mov    $0x637820,%edi
  4110e7:	e8 b4 f2 ff ff       	callq  4103a0 <_ZNSo3putEc@plt>
  4110ec:	48 89 c7             	mov    %rax,%rdi
  4110ef:	e8 6c f4 ff ff       	callq  410560 <_ZNSo5flushEv@plt>
  4110f4:	ba 3e 00 00 00       	mov    $0x3e,%edx
  4110f9:	be 00 cb 42 00       	mov    $0x42cb00,%esi
  4110fe:	bf 20 78 63 00       	mov    $0x637820,%edi
  411103:	e8 b8 f5 ff ff       	callq  4106c0 <_ZSt16__ostream_insertIcSt11char_traitsIcEERSt13basic_ostreamIT_T0_ES6_PKS3_l@plt>
  411108:	48 8b 05 11 67 22 00 	mov    0x226711(%rip),%rax        # 637820 <_ZSt4cout@@GLIBCXX_3.4>
  41110f:	48 8b 40 e8          	mov    -0x18(%rax),%rax
  411113:	48 8b 98 10 79 63 00 	mov    0x637910(%rax),%rbx
  41111a:	48 85 db             	test   %rbx,%rbx
  41111d:	0f 84 b7 06 00 00    	je     4117da <_Z15start_intel_pcmv+0x78a>
  411123:	80 7b 38 00          	cmpb   $0x0,0x38(%rbx)
  411127:	0f 84 4b 04 00 00    	je     411578 <_Z15start_intel_pcmv+0x528>
  41112d:	0f be 73 43          	movsbl 0x43(%rbx),%esi
  411131:	bf 20 78 63 00       	mov    $0x637820,%edi
  411136:	e8 65 f2 ff ff       	callq  4103a0 <_ZNSo3putEc@plt>
  41113b:	48 89 c7             	mov    %rax,%rdi
  41113e:	e8 1d f4 ff ff       	callq  410560 <_ZNSo5flushEv@plt>
  411143:	e8 68 05 01 00       	callq  4216b0 <_ZN3PCM11getInstanceEv>
  411148:	48 89 c7             	mov    %rax,%rdi
  41114b:	48 89 05 a6 6a 22 00 	mov    %rax,0x226aa6(%rip)        # 637bf8 <intel_PCM_instance>
  411152:	e8 59 7e 00 00       	callq  418fb0 <_ZN3PCM8resetPMUEv>
  411157:	48 8b 3d 9a 6a 22 00 	mov    0x226a9a(%rip),%rdi        # 637bf8 <intel_PCM_instance>
  41115e:	31 d2                	xor    %edx,%edx
  411160:	31 f6                	xor    %esi,%esi
  411162:	e8 b9 46 01 00       	callq  425820 <_ZN3PCM7programENS_11ProgramModeEPKv>
  411167:	85 c0                	test   %eax,%eax
  411169:	ba 3e 00 00 00       	mov    $0x3e,%edx
  41116e:	0f 85 6b 06 00 00    	jne    4117df <_Z15start_intel_pcmv+0x78f>
  411174:	be 00 cb 42 00       	mov    $0x42cb00,%esi
  411179:	bf 20 78 63 00       	mov    $0x637820,%edi
  41117e:	e8 3d f5 ff ff       	callq  4106c0 <_ZSt16__ostream_insertIcSt11char_traitsIcEERSt13basic_ostreamIT_T0_ES6_PKS3_l@plt>
  411183:	48 8b 05 96 66 22 00 	mov    0x226696(%rip),%rax        # 637820 <_ZSt4cout@@GLIBCXX_3.4>
  41118a:	48 8b 40 e8          	mov    -0x18(%rax),%rax
  41118e:	48 8b 98 10 79 63 00 	mov    0x637910(%rax),%rbx
  411195:	48 85 db             	test   %rbx,%rbx
  411198:	0f 84 3c 06 00 00    	je     4117da <_Z15start_intel_pcmv+0x78a>
  41119e:	80 7b 38 00          	cmpb   $0x0,0x38(%rbx)
  4111a2:	0f 84 00 04 00 00    	je     4115a8 <_Z15start_intel_pcmv+0x558>
  4111a8:	0f be 73 43          	movsbl 0x43(%rbx),%esi
  4111ac:	bf 20 78 63 00       	mov    $0x637820,%edi
  4111b1:	e8 ea f1 ff ff       	callq  4103a0 <_ZNSo3putEc@plt>
  4111b6:	48 89 c7             	mov    %rax,%rdi
  4111b9:	e8 a2 f3 ff ff       	callq  410560 <_ZNSo5flushEv@plt>
  4111be:	48 8b 05 5b 66 22 00 	mov    0x22665b(%rip),%rax        # 637820 <_ZSt4cout@@GLIBCXX_3.4>
  4111c5:	48 8b 40 e8          	mov    -0x18(%rax),%rax
  4111c9:	48 8b 98 10 79 63 00 	mov    0x637910(%rax),%rbx
  4111d0:	48 85 db             	test   %rbx,%rbx
  4111d3:	0f 84 01 06 00 00    	je     4117da <_Z15start_intel_pcmv+0x78a>
  4111d9:	80 7b 38 00          	cmpb   $0x0,0x38(%rbx)
  4111dd:	0f 84 f5 03 00 00    	je     4115d8 <_Z15start_intel_pcmv+0x588>
  4111e3:	0f be 73 43          	movsbl 0x43(%rbx),%esi
  4111e7:	bf 20 78 63 00       	mov    $0x637820,%edi
  4111ec:	e8 af f1 ff ff       	callq  4103a0 <_ZNSo3putEc@plt>
  4111f1:	48 89 c7             	mov    %rax,%rdi
  4111f4:	e8 67 f3 ff ff       	callq  410560 <_ZNSo5flushEv@plt>
  4111f9:	ba 3e 00 00 00       	mov    $0x3e,%edx
  4111fe:	be 00 cb 42 00       	mov    $0x42cb00,%esi
  411203:	bf 20 78 63 00       	mov    $0x637820,%edi
  411208:	e8 b3 f4 ff ff       	callq  4106c0 <_ZSt16__ostream_insertIcSt11char_traitsIcEERSt13basic_ostreamIT_T0_ES6_PKS3_l@plt>
  41120d:	48 8b 05 0c 66 22 00 	mov    0x22660c(%rip),%rax        # 637820 <_ZSt4cout@@GLIBCXX_3.4>
  411214:	48 8b 40 e8          	mov    -0x18(%rax),%rax
  411218:	48 8b 98 10 79 63 00 	mov    0x637910(%rax),%rbx
  41121f:	48 85 db             	test   %rbx,%rbx
  411222:	0f 84 b2 05 00 00    	je     4117da <_Z15start_intel_pcmv+0x78a>
  411228:	80 7b 38 00          	cmpb   $0x0,0x38(%rbx)
  41122c:	0f 84 d6 03 00 00    	je     411608 <_Z15start_intel_pcmv+0x5b8>
  411232:	0f be 73 43          	movsbl 0x43(%rbx),%esi
  411236:	bf 20 78 63 00       	mov    $0x637820,%edi
  41123b:	e8 60 f1 ff ff       	callq  4103a0 <_ZNSo3putEc@plt>
  411240:	48 89 c7             	mov    %rax,%rdi
  411243:	e8 18 f3 ff ff       	callq  410560 <_ZNSo5flushEv@plt>
  411248:	ba 16 00 00 00       	mov    $0x16,%edx
  41124d:	be a7 cb 42 00       	mov    $0x42cba7,%esi
  411252:	bf 20 78 63 00       	mov    $0x637820,%edi
  411257:	e8 64 f4 ff ff       	callq  4106c0 <_ZSt16__ostream_insertIcSt11char_traitsIcEERSt13basic_ostreamIT_T0_ES6_PKS3_l@plt>
  41125c:	48 8b 05 bd 65 22 00 	mov    0x2265bd(%rip),%rax        # 637820 <_ZSt4cout@@GLIBCXX_3.4>
  411263:	48 8b 40 e8          	mov    -0x18(%rax),%rax
  411267:	48 8b 98 10 79 63 00 	mov    0x637910(%rax),%rbx
  41126e:	48 85 db             	test   %rbx,%rbx
  411271:	0f 84 63 05 00 00    	je     4117da <_Z15start_intel_pcmv+0x78a>
  411277:	80 7b 38 00          	cmpb   $0x0,0x38(%rbx)
  41127b:	0f 84 b7 03 00 00    	je     411638 <_Z15start_intel_pcmv+0x5e8>
  411281:	0f be 73 43          	movsbl 0x43(%rbx),%esi
  411285:	bf 20 78 63 00       	mov    $0x637820,%edi
  41128a:	e8 11 f1 ff ff       	callq  4103a0 <_ZNSo3putEc@plt>
  41128f:	48 89 c7             	mov    %rax,%rdi
  411292:	e8 c9 f2 ff ff       	callq  410560 <_ZNSo5flushEv@plt>
  411297:	ba 3e 00 00 00       	mov    $0x3e,%edx
  41129c:	be 00 cb 42 00       	mov    $0x42cb00,%esi
  4112a1:	bf 20 78 63 00       	mov    $0x637820,%edi
  4112a6:	e8 15 f4 ff ff       	callq  4106c0 <_ZSt16__ostream_insertIcSt11char_traitsIcEERSt13basic_ostreamIT_T0_ES6_PKS3_l@plt>
  4112ab:	48 8b 05 6e 65 22 00 	mov    0x22656e(%rip),%rax        # 637820 <_ZSt4cout@@GLIBCXX_3.4>
  4112b2:	48 8b 40 e8          	mov    -0x18(%rax),%rax
  4112b6:	48 8b 98 10 79 63 00 	mov    0x637910(%rax),%rbx
  4112bd:	48 85 db             	test   %rbx,%rbx
  4112c0:	0f 84 14 05 00 00    	je     4117da <_Z15start_intel_pcmv+0x78a>
  4112c6:	80 7b 38 00          	cmpb   $0x0,0x38(%rbx)
  4112ca:	0f 84 98 03 00 00    	je     411668 <_Z15start_intel_pcmv+0x618>
  4112d0:	0f be 73 43          	movsbl 0x43(%rbx),%esi
  4112d4:	bf 20 78 63 00       	mov    $0x637820,%edi
  4112d9:	e8 c2 f0 ff ff       	callq  4103a0 <_ZNSo3putEc@plt>
  4112de:	48 89 c7             	mov    %rax,%rdi
  4112e1:	e8 7a f2 ff ff       	callq  410560 <_ZNSo5flushEv@plt>
  4112e6:	48 89 e7             	mov    %rsp,%rdi
  4112e9:	e8 42 75 00 00       	callq  418830 <_ZN3PCM17getCPUBrandStringB5cxx11Ev>
  4112ee:	ba 0a 00 00 00       	mov    $0xa,%edx
  4112f3:	be be cb 42 00       	mov    $0x42cbbe,%esi
  4112f8:	bf 20 78 63 00       	mov    $0x637820,%edi
  4112fd:	e8 be f3 ff ff       	callq  4106c0 <_ZSt16__ostream_insertIcSt11char_traitsIcEERSt13basic_ostreamIT_T0_ES6_PKS3_l@plt>
  411302:	48 8b 54 24 08       	mov    0x8(%rsp),%rdx
  411307:	48 8b 34 24          	mov    (%rsp),%rsi
  41130b:	bf 20 78 63 00       	mov    $0x637820,%edi
  411310:	e8 ab f3 ff ff       	callq  4106c0 <_ZSt16__ostream_insertIcSt11char_traitsIcEERSt13basic_ostreamIT_T0_ES6_PKS3_l@plt>
  411315:	48 89 c5             	mov    %rax,%rbp
  411318:	48 8b 00             	mov    (%rax),%rax
  41131b:	48 8b 40 e8          	mov    -0x18(%rax),%rax
  41131f:	48 8b 9c 05 f0 00 00 	mov    0xf0(%rbp,%rax,1),%rbx
  411326:	00 
  411327:	48 85 db             	test   %rbx,%rbx
  41132a:	0f 84 d2 04 00 00    	je     411802 <_Z15start_intel_pcmv+0x7b2>
  411330:	80 7b 38 00          	cmpb   $0x0,0x38(%rbx)
  411334:	0f 84 5e 03 00 00    	je     411698 <_Z15start_intel_pcmv+0x648>
  41133a:	0f be 73 43          	movsbl 0x43(%rbx),%esi
  41133e:	48 89 ef             	mov    %rbp,%rdi
  411341:	e8 5a f0 ff ff       	callq  4103a0 <_ZNSo3putEc@plt>
  411346:	48 89 c7             	mov    %rax,%rdi
  411349:	e8 12 f2 ff ff       	callq  410560 <_ZNSo5flushEv@plt>
  41134e:	48 8b 3c 24          	mov    (%rsp),%rdi
  411352:	48 8d 44 24 10       	lea    0x10(%rsp),%rax
  411357:	48 39 c7             	cmp    %rax,%rdi
  41135a:	74 05                	je     411361 <_Z15start_intel_pcmv+0x311>
  41135c:	e8 ef f2 ff ff       	callq  410650 <_ZdlPv@plt>
  411361:	48 8b 3d 90 68 22 00 	mov    0x226890(%rip),%rdi        # 637bf8 <intel_PCM_instance>
  411368:	be ff ff ff ff       	mov    $0xffffffff,%esi
  41136d:	e8 0e 7c 00 00       	callq  418f80 <_ZNK3PCM16getUArchCodenameEi>
  411372:	ba 0a 00 00 00       	mov    $0xa,%edx
  411377:	48 89 c3             	mov    %rax,%rbx
  41137a:	be c9 cb 42 00       	mov    $0x42cbc9,%esi
  41137f:	bf 20 78 63 00       	mov    $0x637820,%edi
  411384:	e8 37 f3 ff ff       	callq  4106c0 <_ZSt16__ostream_insertIcSt11char_traitsIcEERSt13basic_ostreamIT_T0_ES6_PKS3_l@plt>
  411389:	48 85 db             	test   %rbx,%rbx
  41138c:	0f 84 26 04 00 00    	je     4117b8 <_Z15start_intel_pcmv+0x768>
  411392:	48 89 df             	mov    %rbx,%rdi
  411395:	e8 16 f1 ff ff       	callq  4104b0 <strlen@plt>
  41139a:	48 89 de             	mov    %rbx,%rsi
  41139d:	48 89 c2             	mov    %rax,%rdx
  4113a0:	bf 20 78 63 00       	mov    $0x637820,%edi
  4113a5:	e8 16 f3 ff ff       	callq  4106c0 <_ZSt16__ostream_insertIcSt11char_traitsIcEERSt13basic_ostreamIT_T0_ES6_PKS3_l@plt>
  4113aa:	48 8b 05 6f 64 22 00 	mov    0x22646f(%rip),%rax        # 637820 <_ZSt4cout@@GLIBCXX_3.4>
  4113b1:	48 8b 40 e8          	mov    -0x18(%rax),%rax
  4113b5:	48 8b 98 10 79 63 00 	mov    0x637910(%rax),%rbx
  4113bc:	48 85 db             	test   %rbx,%rbx
  4113bf:	0f 84 15 04 00 00    	je     4117da <_Z15start_intel_pcmv+0x78a>
  4113c5:	80 7b 38 00          	cmpb   $0x0,0x38(%rbx)
  4113c9:	0f 84 f9 02 00 00    	je     4116c8 <_Z15start_intel_pcmv+0x678>
  4113cf:	0f be 73 43          	movsbl 0x43(%rbx),%esi
  4113d3:	bf 20 78 63 00       	mov    $0x637820,%edi
  4113d8:	e8 c3 ef ff ff       	callq  4103a0 <_ZNSo3putEc@plt>
  4113dd:	48 89 c7             	mov    %rax,%rdi
  4113e0:	e8 7b f1 ff ff       	callq  410560 <_ZNSo5flushEv@plt>
  4113e5:	48 8b 05 0c 68 22 00 	mov    0x22680c(%rip),%rax        # 637bf8 <intel_PCM_instance>
  4113ec:	ba 0a 00 00 00       	mov    $0xa,%edx
  4113f1:	be d4 cb 42 00       	mov    $0x42cbd4,%esi
  4113f6:	bf 20 78 63 00       	mov    $0x637820,%edi
  4113fb:	8b 58 0c             	mov    0xc(%rax),%ebx
  4113fe:	e8 bd f2 ff ff       	callq  4106c0 <_ZSt16__ostream_insertIcSt11char_traitsIcEERSt13basic_ostreamIT_T0_ES6_PKS3_l@plt>
  411403:	bf 20 78 63 00       	mov    $0x637820,%edi
  411408:	89 de                	mov    %ebx,%esi
  41140a:	e8 41 f1 ff ff       	callq  410550 <_ZNSo9_M_insertImEERSoT_@plt>
  41140f:	48 89 c5             	mov    %rax,%rbp
  411412:	48 8b 00             	mov    (%rax),%rax
  411415:	48 8b 40 e8          	mov    -0x18(%rax),%rax
  411419:	48 8b 9c 05 f0 00 00 	mov    0xf0(%rbp,%rax,1),%rbx
  411420:	00 
  411421:	48 85 db             	test   %rbx,%rbx
  411424:	0f 84 b0 03 00 00    	je     4117da <_Z15start_intel_pcmv+0x78a>
  41142a:	80 7b 38 00          	cmpb   $0x0,0x38(%rbx)
  41142e:	0f 84 c4 02 00 00    	je     4116f8 <_Z15start_intel_pcmv+0x6a8>
  411434:	0f be 73 43          	movsbl 0x43(%rbx),%esi
  411438:	48 89 ef             	mov    %rbp,%rdi
  41143b:	e8 60 ef ff ff       	callq  4103a0 <_ZNSo3putEc@plt>
  411440:	48 89 c7             	mov    %rax,%rdi
  411443:	e8 18 f1 ff ff       	callq  410560 <_ZNSo5flushEv@plt>
  411448:	ba 3e 00 00 00       	mov    $0x3e,%edx
  41144d:	be 00 cb 42 00       	mov    $0x42cb00,%esi
  411452:	bf 20 78 63 00       	mov    $0x637820,%edi
  411457:	e8 64 f2 ff ff       	callq  4106c0 <_ZSt16__ostream_insertIcSt11char_traitsIcEERSt13basic_ostreamIT_T0_ES6_PKS3_l@plt>
  41145c:	48 8b 05 bd 63 22 00 	mov    0x2263bd(%rip),%rax        # 637820 <_ZSt4cout@@GLIBCXX_3.4>
  411463:	48 8b 40 e8          	mov    -0x18(%rax),%rax
  411467:	48 8b 98 10 79 63 00 	mov    0x637910(%rax),%rbx
  41146e:	48 85 db             	test   %rbx,%rbx
  411471:	0f 84 63 03 00 00    	je     4117da <_Z15start_intel_pcmv+0x78a>
  411477:	80 7b 38 00          	cmpb   $0x0,0x38(%rbx)
  41147b:	0f 84 a7 02 00 00    	je     411728 <_Z15start_intel_pcmv+0x6d8>
  411481:	0f be 73 43          	movsbl 0x43(%rbx),%esi
  411485:	bf 20 78 63 00       	mov    $0x637820,%edi
  41148a:	e8 11 ef ff ff       	callq  4103a0 <_ZNSo3putEc@plt>
  41148f:	48 89 c7             	mov    %rax,%rdi
  411492:	e8 c9 f0 ff ff       	callq  410560 <_ZNSo5flushEv@plt>
  411497:	48 8b 05 82 63 22 00 	mov    0x226382(%rip),%rax        # 637820 <_ZSt4cout@@GLIBCXX_3.4>
  41149e:	48 8b 40 e8          	mov    -0x18(%rax),%rax
  4114a2:	48 8b 98 10 79 63 00 	mov    0x637910(%rax),%rbx
  4114a9:	48 85 db             	test   %rbx,%rbx
  4114ac:	0f 84 28 03 00 00    	je     4117da <_Z15start_intel_pcmv+0x78a>
  4114b2:	80 7b 38 00          	cmpb   $0x0,0x38(%rbx)
  4114b6:	0f 84 9c 02 00 00    	je     411758 <_Z15start_intel_pcmv+0x708>
  4114bc:	0f be 73 43          	movsbl 0x43(%rbx),%esi
  4114c0:	bf 20 78 63 00       	mov    $0x637820,%edi
  4114c5:	e8 d6 ee ff ff       	callq  4103a0 <_ZNSo3putEc@plt>
  4114ca:	48 89 c7             	mov    %rax,%rdi
  4114cd:	e8 8e f0 ff ff       	callq  410560 <_ZNSo5flushEv@plt>
  4114d2:	48 89 c5             	mov    %rax,%rbp
  4114d5:	48 8b 00             	mov    (%rax),%rax
  4114d8:	48 8b 40 e8          	mov    -0x18(%rax),%rax
  4114dc:	48 8b 9c 05 f0 00 00 	mov    0xf0(%rbp,%rax,1),%rbx
  4114e3:	00 
  4114e4:	48 85 db             	test   %rbx,%rbx
  4114e7:	0f 84 ed 02 00 00    	je     4117da <_Z15start_intel_pcmv+0x78a>
  4114ed:	80 7b 38 00          	cmpb   $0x0,0x38(%rbx)
  4114f1:	0f 84 91 02 00 00    	je     411788 <_Z15start_intel_pcmv+0x738>
  4114f7:	0f be 73 43          	movsbl 0x43(%rbx),%esi
  4114fb:	48 89 ef             	mov    %rbp,%rdi
  4114fe:	e8 9d ee ff ff       	callq  4103a0 <_ZNSo3putEc@plt>
  411503:	48 89 c7             	mov    %rax,%rdi
  411506:	e8 55 f0 ff ff       	callq  410560 <_ZNSo5flushEv@plt>
  41150b:	48 83 c4 28          	add    $0x28,%rsp
  41150f:	5b                   	pop    %rbx
  411510:	5d                   	pop    %rbp
  411511:	c3                   	retq   
  411512:	66 0f 1f 44 00 00    	nopw   0x0(%rax,%rax,1)
  411518:	48 89 df             	mov    %rbx,%rdi
  41151b:	e8 b0 f1 ff ff       	callq  4106d0 <_ZNKSt5ctypeIcE13_M_widen_initEv@plt>
  411520:	48 8b 03             	mov    (%rbx),%rax
  411523:	be 0a 00 00 00       	mov    $0xa,%esi
  411528:	48 8b 40 30          	mov    0x30(%rax),%rax
  41152c:	48 3d 70 19 41 00    	cmp    $0x411970,%rax
  411532:	0f 84 5b fb ff ff    	je     411093 <_Z15start_intel_pcmv+0x43>
  411538:	48 89 df             	mov    %rbx,%rdi
  41153b:	ff d0                	callq  *%rax
  41153d:	0f be f0             	movsbl %al,%esi
  411540:	e9 4e fb ff ff       	jmpq   411093 <_Z15start_intel_pcmv+0x43>
  411545:	0f 1f 00             	nopl   (%rax)
  411548:	48 89 df             	mov    %rbx,%rdi
  41154b:	e8 80 f1 ff ff       	callq  4106d0 <_ZNKSt5ctypeIcE13_M_widen_initEv@plt>
  411550:	48 8b 03             	mov    (%rbx),%rax
  411553:	be 0a 00 00 00       	mov    $0xa,%esi
  411558:	48 8b 40 30          	mov    0x30(%rax),%rax
  41155c:	48 3d 70 19 41 00    	cmp    $0x411970,%rax
  411562:	0f 84 7a fb ff ff    	je     4110e2 <_Z15start_intel_pcmv+0x92>
  411568:	48 89 df             	mov    %rbx,%rdi
  41156b:	ff d0                	callq  *%rax
  41156d:	0f be f0             	movsbl %al,%esi
  411570:	e9 6d fb ff ff       	jmpq   4110e2 <_Z15start_intel_pcmv+0x92>
  411575:	0f 1f 00             	nopl   (%rax)
  411578:	48 89 df             	mov    %rbx,%rdi
  41157b:	e8 50 f1 ff ff       	callq  4106d0 <_ZNKSt5ctypeIcE13_M_widen_initEv@plt>
  411580:	48 8b 03             	mov    (%rbx),%rax
  411583:	be 0a 00 00 00       	mov    $0xa,%esi
  411588:	48 8b 40 30          	mov    0x30(%rax),%rax
  41158c:	48 3d 70 19 41 00    	cmp    $0x411970,%rax
  411592:	0f 84 99 fb ff ff    	je     411131 <_Z15start_intel_pcmv+0xe1>
  411598:	48 89 df             	mov    %rbx,%rdi
  41159b:	ff d0                	callq  *%rax
  41159d:	0f be f0             	movsbl %al,%esi
  4115a0:	e9 8c fb ff ff       	jmpq   411131 <_Z15start_intel_pcmv+0xe1>
  4115a5:	0f 1f 00             	nopl   (%rax)
  4115a8:	48 89 df             	mov    %rbx,%rdi
  4115ab:	e8 20 f1 ff ff       	callq  4106d0 <_ZNKSt5ctypeIcE13_M_widen_initEv@plt>
  4115b0:	48 8b 03             	mov    (%rbx),%rax
  4115b3:	be 0a 00 00 00       	mov    $0xa,%esi
  4115b8:	48 8b 40 30          	mov    0x30(%rax),%rax
  4115bc:	48 3d 70 19 41 00    	cmp    $0x411970,%rax
  4115c2:	0f 84 e4 fb ff ff    	je     4111ac <_Z15start_intel_pcmv+0x15c>
  4115c8:	48 89 df             	mov    %rbx,%rdi
  4115cb:	ff d0                	callq  *%rax
  4115cd:	0f be f0             	movsbl %al,%esi
  4115d0:	e9 d7 fb ff ff       	jmpq   4111ac <_Z15start_intel_pcmv+0x15c>
  4115d5:	0f 1f 00             	nopl   (%rax)
  4115d8:	48 89 df             	mov    %rbx,%rdi
  4115db:	e8 f0 f0 ff ff       	callq  4106d0 <_ZNKSt5ctypeIcE13_M_widen_initEv@plt>
  4115e0:	48 8b 03             	mov    (%rbx),%rax
  4115e3:	be 0a 00 00 00       	mov    $0xa,%esi
  4115e8:	48 8b 40 30          	mov    0x30(%rax),%rax
  4115ec:	48 3d 70 19 41 00    	cmp    $0x411970,%rax
  4115f2:	0f 84 ef fb ff ff    	je     4111e7 <_Z15start_intel_pcmv+0x197>
  4115f8:	48 89 df             	mov    %rbx,%rdi
  4115fb:	ff d0                	callq  *%rax
  4115fd:	0f be f0             	movsbl %al,%esi
  411600:	e9 e2 fb ff ff       	jmpq   4111e7 <_Z15start_intel_pcmv+0x197>
  411605:	0f 1f 00             	nopl   (%rax)
  411608:	48 89 df             	mov    %rbx,%rdi
  41160b:	e8 c0 f0 ff ff       	callq  4106d0 <_ZNKSt5ctypeIcE13_M_widen_initEv@plt>
  411610:	48 8b 03             	mov    (%rbx),%rax
  411613:	be 0a 00 00 00       	mov    $0xa,%esi
  411618:	48 8b 40 30          	mov    0x30(%rax),%rax
  41161c:	48 3d 70 19 41 00    	cmp    $0x411970,%rax
  411622:	0f 84 0e fc ff ff    	je     411236 <_Z15start_intel_pcmv+0x1e6>
  411628:	48 89 df             	mov    %rbx,%rdi
  41162b:	ff d0                	callq  *%rax
  41162d:	0f be f0             	movsbl %al,%esi
  411630:	e9 01 fc ff ff       	jmpq   411236 <_Z15start_intel_pcmv+0x1e6>
  411635:	0f 1f 00             	nopl   (%rax)
  411638:	48 89 df             	mov    %rbx,%rdi
  41163b:	e8 90 f0 ff ff       	callq  4106d0 <_ZNKSt5ctypeIcE13_M_widen_initEv@plt>
  411640:	48 8b 03             	mov    (%rbx),%rax
  411643:	be 0a 00 00 00       	mov    $0xa,%esi
  411648:	48 8b 40 30          	mov    0x30(%rax),%rax
  41164c:	48 3d 70 19 41 00    	cmp    $0x411970,%rax
  411652:	0f 84 2d fc ff ff    	je     411285 <_Z15start_intel_pcmv+0x235>
  411658:	48 89 df             	mov    %rbx,%rdi
  41165b:	ff d0                	callq  *%rax
  41165d:	0f be f0             	movsbl %al,%esi
  411660:	e9 20 fc ff ff       	jmpq   411285 <_Z15start_intel_pcmv+0x235>
  411665:	0f 1f 00             	nopl   (%rax)
  411668:	48 89 df             	mov    %rbx,%rdi
  41166b:	e8 60 f0 ff ff       	callq  4106d0 <_ZNKSt5ctypeIcE13_M_widen_initEv@plt>
  411670:	48 8b 03             	mov    (%rbx),%rax
  411673:	be 0a 00 00 00       	mov    $0xa,%esi
  411678:	48 8b 40 30          	mov    0x30(%rax),%rax
  41167c:	48 3d 70 19 41 00    	cmp    $0x411970,%rax
  411682:	0f 84 4c fc ff ff    	je     4112d4 <_Z15start_intel_pcmv+0x284>
  411688:	48 89 df             	mov    %rbx,%rdi
  41168b:	ff d0                	callq  *%rax
  41168d:	0f be f0             	movsbl %al,%esi
  411690:	e9 3f fc ff ff       	jmpq   4112d4 <_Z15start_intel_pcmv+0x284>
  411695:	0f 1f 00             	nopl   (%rax)
  411698:	48 89 df             	mov    %rbx,%rdi
  41169b:	e8 30 f0 ff ff       	callq  4106d0 <_ZNKSt5ctypeIcE13_M_widen_initEv@plt>
  4116a0:	48 8b 03             	mov    (%rbx),%rax
  4116a3:	be 0a 00 00 00       	mov    $0xa,%esi
  4116a8:	48 8b 40 30          	mov    0x30(%rax),%rax
  4116ac:	48 3d 70 19 41 00    	cmp    $0x411970,%rax
  4116b2:	0f 84 86 fc ff ff    	je     41133e <_Z15start_intel_pcmv+0x2ee>
  4116b8:	48 89 df             	mov    %rbx,%rdi
  4116bb:	ff d0                	callq  *%rax
  4116bd:	0f be f0             	movsbl %al,%esi
  4116c0:	e9 79 fc ff ff       	jmpq   41133e <_Z15start_intel_pcmv+0x2ee>
  4116c5:	0f 1f 00             	nopl   (%rax)
  4116c8:	48 89 df             	mov    %rbx,%rdi
  4116cb:	e8 00 f0 ff ff       	callq  4106d0 <_ZNKSt5ctypeIcE13_M_widen_initEv@plt>
  4116d0:	48 8b 03             	mov    (%rbx),%rax
  4116d3:	be 0a 00 00 00       	mov    $0xa,%esi
  4116d8:	48 8b 40 30          	mov    0x30(%rax),%rax
  4116dc:	48 3d 70 19 41 00    	cmp    $0x411970,%rax
  4116e2:	0f 84 eb fc ff ff    	je     4113d3 <_Z15start_intel_pcmv+0x383>
  4116e8:	48 89 df             	mov    %rbx,%rdi
  4116eb:	ff d0                	callq  *%rax
  4116ed:	0f be f0             	movsbl %al,%esi
  4116f0:	e9 de fc ff ff       	jmpq   4113d3 <_Z15start_intel_pcmv+0x383>
  4116f5:	0f 1f 00             	nopl   (%rax)
  4116f8:	48 89 df             	mov    %rbx,%rdi
  4116fb:	e8 d0 ef ff ff       	callq  4106d0 <_ZNKSt5ctypeIcE13_M_widen_initEv@plt>
  411700:	48 8b 03             	mov    (%rbx),%rax
  411703:	be 0a 00 00 00       	mov    $0xa,%esi
  411708:	48 8b 40 30          	mov    0x30(%rax),%rax
  41170c:	48 3d 70 19 41 00    	cmp    $0x411970,%rax
  411712:	0f 84 20 fd ff ff    	je     411438 <_Z15start_intel_pcmv+0x3e8>
  411718:	48 89 df             	mov    %rbx,%rdi
  41171b:	ff d0                	callq  *%rax
  41171d:	0f be f0             	movsbl %al,%esi
  411720:	e9 13 fd ff ff       	jmpq   411438 <_Z15start_intel_pcmv+0x3e8>
  411725:	0f 1f 00             	nopl   (%rax)
  411728:	48 89 df             	mov    %rbx,%rdi
  41172b:	e8 a0 ef ff ff       	callq  4106d0 <_ZNKSt5ctypeIcE13_M_widen_initEv@plt>
  411730:	48 8b 03             	mov    (%rbx),%rax
  411733:	be 0a 00 00 00       	mov    $0xa,%esi
  411738:	48 8b 40 30          	mov    0x30(%rax),%rax
  41173c:	48 3d 70 19 41 00    	cmp    $0x411970,%rax
  411742:	0f 84 3d fd ff ff    	je     411485 <_Z15start_intel_pcmv+0x435>
  411748:	48 89 df             	mov    %rbx,%rdi
  41174b:	ff d0                	callq  *%rax
  41174d:	0f be f0             	movsbl %al,%esi
  411750:	e9 30 fd ff ff       	jmpq   411485 <_Z15start_intel_pcmv+0x435>
  411755:	0f 1f 00             	nopl   (%rax)
  411758:	48 89 df             	mov    %rbx,%rdi
  41175b:	e8 70 ef ff ff       	callq  4106d0 <_ZNKSt5ctypeIcE13_M_widen_initEv@plt>
  411760:	48 8b 03             	mov    (%rbx),%rax
  411763:	be 0a 00 00 00       	mov    $0xa,%esi
  411768:	48 8b 40 30          	mov    0x30(%rax),%rax
  41176c:	48 3d 70 19 41 00    	cmp    $0x411970,%rax
  411772:	0f 84 48 fd ff ff    	je     4114c0 <_Z15start_intel_pcmv+0x470>
  411778:	48 89 df             	mov    %rbx,%rdi
  41177b:	ff d0                	callq  *%rax
  41177d:	0f be f0             	movsbl %al,%esi
  411780:	e9 3b fd ff ff       	jmpq   4114c0 <_Z15start_intel_pcmv+0x470>
  411785:	0f 1f 00             	nopl   (%rax)
  411788:	48 89 df             	mov    %rbx,%rdi
  41178b:	e8 40 ef ff ff       	callq  4106d0 <_ZNKSt5ctypeIcE13_M_widen_initEv@plt>
  411790:	48 8b 03             	mov    (%rbx),%rax
  411793:	be 0a 00 00 00       	mov    $0xa,%esi
  411798:	48 8b 40 30          	mov    0x30(%rax),%rax
  41179c:	48 3d 70 19 41 00    	cmp    $0x411970,%rax
  4117a2:	0f 84 53 fd ff ff    	je     4114fb <_Z15start_intel_pcmv+0x4ab>
  4117a8:	48 89 df             	mov    %rbx,%rdi
  4117ab:	ff d0                	callq  *%rax
  4117ad:	0f be f0             	movsbl %al,%esi
  4117b0:	e9 46 fd ff ff       	jmpq   4114fb <_Z15start_intel_pcmv+0x4ab>
  4117b5:	0f 1f 00             	nopl   (%rax)
  4117b8:	48 8b 05 61 60 22 00 	mov    0x226061(%rip),%rax        # 637820 <_ZSt4cout@@GLIBCXX_3.4>
  4117bf:	48 8b 78 e8          	mov    -0x18(%rax),%rdi
  4117c3:	48 81 c7 20 78 63 00 	add    $0x637820,%rdi
  4117ca:	8b 77 20             	mov    0x20(%rdi),%esi
  4117cd:	83 ce 01             	or     $0x1,%esi
  4117d0:	e8 0b f1 ff ff       	callq  4108e0 <_ZNSt9basic_iosIcSt11char_traitsIcEE5clearESt12_Ios_Iostate@plt>
  4117d5:	e9 d0 fb ff ff       	jmpq   4113aa <_Z15start_intel_pcmv+0x35a>
  4117da:	e8 61 ef ff ff       	callq  410740 <_ZSt16__throw_bad_castv@plt>
  4117df:	be 68 cb 42 00       	mov    $0x42cb68,%esi
  4117e4:	bf 20 78 63 00       	mov    $0x637820,%edi
  4117e9:	e8 d2 ee ff ff       	callq  4106c0 <_ZSt16__ostream_insertIcSt11char_traitsIcEERSt13basic_ostreamIT_T0_ES6_PKS3_l@plt>
  4117ee:	bf 20 78 63 00       	mov    $0x637820,%edi
  4117f3:	e8 d8 ec ff ff       	callq  4104d0 <_ZSt4endlIcSt11char_traitsIcEERSt13basic_ostreamIT_T0_ES6_@plt>
  4117f8:	bf 01 00 00 00       	mov    $0x1,%edi
  4117fd:	e8 0e ef ff ff       	callq  410710 <exit@plt>
  411802:	e8 39 ef ff ff       	callq  410740 <_ZSt16__throw_bad_castv@plt>
  411807:	48 8b 3c 24          	mov    (%rsp),%rdi
  41180b:	48 8d 54 24 10       	lea    0x10(%rsp),%rdx
  411810:	48 89 c3             	mov    %rax,%rbx
  411813:	48 39 d7             	cmp    %rdx,%rdi
  411816:	74 05                	je     41181d <_Z15start_intel_pcmv+0x7cd>
  411818:	e8 33 ee ff ff       	callq  410650 <_ZdlPv@plt>
  41181d:	48 89 df             	mov    %rbx,%rdi
  411820:	e8 fb f0 ff ff       	callq  410920 <_Unwind_Resume@plt>
  411825:	90                   	nop
  411826:	66 2e 0f 1f 84 00 00 	nopw   %cs:0x0(%rax,%rax,1)
  41182d:	00 00 00 

0000000000411830 <perf_init>:
  411830:	55                   	push   %rbp
  411831:	53                   	push   %rbx
  411832:	48 81 ec 88 00 00 00 	sub    $0x88,%rsp
  411839:	e8 12 f8 ff ff       	callq  411050 <_Z15start_intel_pcmv>
  41183e:	48 8b 3d b3 63 22 00 	mov    0x2263b3(%rip),%rdi        # 637bf8 <intel_PCM_instance>
  411845:	e8 f6 7c 00 00       	callq  419540 <_ZN3PCM11getNumCoresEv>
  41184a:	83 e8 01             	sub    $0x1,%eax
  41184d:	89 c3                	mov    %eax,%ebx
  41184f:	79 13                	jns    411864 <perf_init+0x34>
  411851:	eb 23                	jmp    411876 <perf_init+0x46>
  411853:	0f 1f 44 00 00       	nopl   0x0(%rax,%rax,1)
  411858:	83 eb 01             	sub    $0x1,%ebx
  41185b:	83 fb ff             	cmp    $0xffffffff,%ebx
  41185e:	0f 84 7c 00 00 00    	je     4118e0 <perf_init+0xb0>
  411864:	48 8b 3d 8d 63 22 00 	mov    0x22638d(%rip),%rdi        # 637bf8 <intel_PCM_instance>
  41186b:	89 de                	mov    %ebx,%esi
  41186d:	e8 8e 65 00 00       	callq  417e00 <_ZNK3PCM12isCoreOnlineEi>
  411872:	84 c0                	test   %al,%al
  411874:	74 e2                	je     411858 <perf_init+0x28>
  411876:	31 c0                	xor    %eax,%eax
  411878:	b9 10 00 00 00       	mov    $0x10,%ecx
  41187d:	48 89 e7             	mov    %rsp,%rdi
  411880:	f3 48 ab             	rep stos %rax,%es:(%rdi)
  411883:	48 63 c3             	movslq %ebx,%rax
  411886:	48 89 e5             	mov    %rsp,%rbp
  411889:	48 3d ff 03 00 00    	cmp    $0x3ff,%rax
  41188f:	77 12                	ja     4118a3 <perf_init+0x73>
  411891:	48 c1 e8 06          	shr    $0x6,%rax
  411895:	ba 01 00 00 00       	mov    $0x1,%edx
  41189a:	89 d9                	mov    %ebx,%ecx
  41189c:	48 d3 e2             	shl    %cl,%rdx
  41189f:	48 09 14 c4          	or     %rdx,(%rsp,%rax,8)
  4118a3:	e8 18 ef ff ff       	callq  4107c0 <getpid@plt>
  4118a8:	48 89 ea             	mov    %rbp,%rdx
  4118ab:	be 80 00 00 00       	mov    $0x80,%esi
  4118b0:	89 c7                	mov    %eax,%edi
  4118b2:	e8 29 ed ff ff       	callq  4105e0 <sched_setaffinity@plt>
  4118b7:	bf 10 00 00 00       	mov    $0x10,%edi
  4118bc:	e8 bf ed ff ff       	callq  410680 <_Znwm@plt>
  4118c1:	89 de                	mov    %ebx,%esi
  4118c3:	48 89 c7             	mov    %rax,%rdi
  4118c6:	48 89 c5             	mov    %rax,%rbp
  4118c9:	e8 82 93 01 00       	callq  42ac50 <_ZN9MsrHandleC1Ej>
  4118ce:	48 89 2d 2b 63 22 00 	mov    %rbp,0x22632b(%rip)        # 637c00 <cpu_core_msr_handle>
  4118d5:	48 81 c4 88 00 00 00 	add    $0x88,%rsp
  4118dc:	5b                   	pop    %rbx
  4118dd:	5d                   	pop    %rbp
  4118de:	c3                   	retq   
  4118df:	90                   	nop
  4118e0:	b9 10 00 00 00       	mov    $0x10,%ecx
  4118e5:	31 c0                	xor    %eax,%eax
  4118e7:	48 89 e7             	mov    %rsp,%rdi
  4118ea:	48 89 e5             	mov    %rsp,%rbp
  4118ed:	f3 48 ab             	rep stos %rax,%es:(%rdi)
  4118f0:	eb b1                	jmp    4118a3 <perf_init+0x73>
  4118f2:	48 89 c3             	mov    %rax,%rbx
  4118f5:	48 89 ef             	mov    %rbp,%rdi
  4118f8:	e8 53 ed ff ff       	callq  410650 <_ZdlPv@plt>
  4118fd:	48 89 df             	mov    %rbx,%rdi
  411900:	e8 1b f0 ff ff       	callq  410920 <_Unwind_Resume@plt>
  411905:	90                   	nop
  411906:	66 2e 0f 1f 84 00 00 	nopw   %cs:0x0(%rax,%rax,1)
  41190d:	00 00 00 

0000000000411910 <cycles_count_start>:
  411910:	48 8b 3d e9 62 22 00 	mov    0x2262e9(%rip),%rdi        # 637c00 <cpu_core_msr_handle>
  411917:	ba 10 7c 63 00       	mov    $0x637c10,%edx
  41191c:	be 0a 03 00 00       	mov    $0x30a,%esi
  411921:	e9 2a 94 01 00       	jmpq   42ad50 <_ZN9MsrHandle4readEyPy>
  411926:	66 2e 0f 1f 84 00 00 	nopw   %cs:0x0(%rax,%rax,1)
  41192d:	00 00 00 

0000000000411930 <cycles_count_stop>:
  411930:	48 83 ec 08          	sub    $0x8,%rsp
  411934:	48 8b 3d c5 62 22 00 	mov    0x2262c5(%rip),%rdi        # 637c00 <cpu_core_msr_handle>
  41193b:	ba 08 7c 63 00       	mov    $0x637c08,%edx
  411940:	be 0a 03 00 00       	mov    $0x30a,%esi
  411945:	e8 06 94 01 00       	callq  42ad50 <_ZN9MsrHandle4readEyPy>
  41194a:	48 8b 05 b7 62 22 00 	mov    0x2262b7(%rip),%rax        # 637c08 <cpu_clk_unhalted_thread_counter_stop>
  411951:	48 2b 05 b8 62 22 00 	sub    0x2262b8(%rip),%rax        # 637c10 <cpu_clk_unhalted_thread_counter_start>
  411958:	48 83 c4 08          	add    $0x8,%rsp
  41195c:	c3                   	retq   
  41195d:	0f 1f 00             	nopl   (%rax)

0000000000411960 <perf_done>:
  411960:	f3 c3                	repz retq 
  411962:	66 2e 0f 1f 84 00 00 	nopw   %cs:0x0(%rax,%rax,1)
  411969:	00 00 00 
  41196c:	0f 1f 40 00          	nopl   0x0(%rax)

0000000000411970 <_ZNKSt5ctypeIcE8do_widenEc>:
  411970:	89 f0                	mov    %esi,%eax
  411972:	c3                   	retq   
  411973:	66 2e 0f 1f 84 00 00 	nopw   %cs:0x0(%rax,%rax,1)
  41197a:	00 00 00 
  41197d:	0f 1f 00             	nopl   (%rax)

0000000000411980 <_ZNSaI13TopologyEntryEC1Ev>:
  411980:	f3 c3                	repz retq 
  411982:	66 2e 0f 1f 84 00 00 	nopw   %cs:0x0(%rax,%rax,1)
  411989:	00 00 00 
  41198c:	0f 1f 40 00          	nopl   0x0(%rax)

0000000000411990 <_ZNSaI13TopologyEntryEC1ERKS0_>:
  411990:	f3 c3                	repz retq 
  411992:	66 2e 0f 1f 84 00 00 	nopw   %cs:0x0(%rax,%rax,1)
  411999:	00 00 00 
  41199c:	0f 1f 40 00          	nopl   0x0(%rax)

00000000004119a0 <_ZNSaI13TopologyEntryED1Ev>:
  4119a0:	f3 c3                	repz retq 
  4119a2:	66 2e 0f 1f 84 00 00 	nopw   %cs:0x0(%rax,%rax,1)
  4119a9:	00 00 00 
  4119ac:	0f 1f 40 00          	nopl   0x0(%rax)

00000000004119b0 <_ZNSt6vectorI13TopologyEntrySaIS0_EEC1Ev>:
  4119b0:	48 c7 07 00 00 00 00 	movq   $0x0,(%rdi)
  4119b7:	48 c7 47 08 00 00 00 	movq   $0x0,0x8(%rdi)
  4119be:	00 
  4119bf:	48 c7 47 10 00 00 00 	movq   $0x0,0x10(%rdi)
  4119c6:	00 
  4119c7:	c3                   	retq   
  4119c8:	0f 1f 84 00 00 00 00 	nopl   0x0(%rax,%rax,1)
  4119cf:	00 

00000000004119d0 <_ZNSt6vectorI13TopologyEntrySaIS0_EEC1ERKS1_>:
  4119d0:	48 c7 07 00 00 00 00 	movq   $0x0,(%rdi)
  4119d7:	48 c7 47 08 00 00 00 	movq   $0x0,0x8(%rdi)
  4119de:	00 
  4119df:	48 c7 47 10 00 00 00 	movq   $0x0,0x10(%rdi)
  4119e6:	00 
  4119e7:	c3                   	retq   
  4119e8:	0f 1f 84 00 00 00 00 	nopl   0x0(%rax,%rax,1)
  4119ef:	00 

00000000004119f0 <_ZNSt6vectorI13TopologyEntrySaIS0_EEC1EmRKS1_>:
  4119f0:	48 85 f6             	test   %rsi,%rsi
  4119f3:	41 54                	push   %r12
  4119f5:	55                   	push   %rbp
  4119f6:	48 89 fd             	mov    %rdi,%rbp
  4119f9:	53                   	push   %rbx
  4119fa:	48 c7 07 00 00 00 00 	movq   $0x0,(%rdi)
  411a01:	48 c7 47 08 00 00 00 	movq   $0x0,0x8(%rdi)
  411a08:	00 
  411a09:	48 c7 47 10 00 00 00 	movq   $0x0,0x10(%rdi)
  411a10:	00 
  411a11:	74 69                	je     411a7c <_ZNSt6vectorI13TopologyEntrySaIS0_EEC1EmRKS1_+0x8c>
  411a13:	48 b8 55 55 55 55 55 	movabs $0x1555555555555555,%rax
  411a1a:	55 55 15 
  411a1d:	48 89 f3             	mov    %rsi,%rbx
  411a20:	48 39 c6             	cmp    %rax,%rsi
  411a23:	77 6a                	ja     411a8f <_ZNSt6vectorI13TopologyEntrySaIS0_EEC1EmRKS1_+0x9f>
  411a25:	48 8d 3c 76          	lea    (%rsi,%rsi,2),%rdi
  411a29:	4c 8d 24 bd 00 00 00 	lea    0x0(,%rdi,4),%r12
  411a30:	00 
  411a31:	4c 89 e7             	mov    %r12,%rdi
  411a34:	e8 47 ec ff ff       	callq  410680 <_Znwm@plt>
  411a39:	4a 8d 3c 20          	lea    (%rax,%r12,1),%rdi
  411a3d:	48 89 45 00          	mov    %rax,0x0(%rbp)
  411a41:	48 89 45 08          	mov    %rax,0x8(%rbp)
  411a45:	48 89 7d 10          	mov    %rdi,0x10(%rbp)
  411a49:	0f 1f 80 00 00 00 00 	nopl   0x0(%rax)
  411a50:	48 85 c0             	test   %rax,%rax
  411a53:	74 14                	je     411a69 <_ZNSt6vectorI13TopologyEntrySaIS0_EEC1EmRKS1_+0x79>
  411a55:	c7 00 ff ff ff ff    	movl   $0xffffffff,(%rax)
  411a5b:	c7 40 04 ff ff ff ff 	movl   $0xffffffff,0x4(%rax)
  411a62:	c7 40 08 ff ff ff ff 	movl   $0xffffffff,0x8(%rax)
  411a69:	48 83 c0 0c          	add    $0xc,%rax
  411a6d:	48 83 eb 01          	sub    $0x1,%rbx
  411a71:	75 dd                	jne    411a50 <_ZNSt6vectorI13TopologyEntrySaIS0_EEC1EmRKS1_+0x60>
  411a73:	48 89 7d 08          	mov    %rdi,0x8(%rbp)
  411a77:	5b                   	pop    %rbx
  411a78:	5d                   	pop    %rbp
  411a79:	41 5c                	pop    %r12
  411a7b:	c3                   	retq   
  411a7c:	48 c7 47 10 00 00 00 	movq   $0x0,0x10(%rdi)
  411a83:	00 
  411a84:	31 ff                	xor    %edi,%edi
  411a86:	48 89 7d 08          	mov    %rdi,0x8(%rbp)
  411a8a:	5b                   	pop    %rbx
  411a8b:	5d                   	pop    %rbp
  411a8c:	41 5c                	pop    %r12
  411a8e:	c3                   	retq   
  411a8f:	e8 ec e9 ff ff       	callq  410480 <_ZSt17__throw_bad_allocv@plt>
  411a94:	66 2e 0f 1f 84 00 00 	nopw   %cs:0x0(%rax,%rax,1)
  411a9b:	00 00 00 
  411a9e:	66 90                	xchg   %ax,%ax

0000000000411aa0 <_ZNSt6vectorI13TopologyEntrySaIS0_EEC1EmRKS0_RKS1_>:
  411aa0:	41 55                	push   %r13
  411aa2:	41 54                	push   %r12
  411aa4:	49 89 fc             	mov    %rdi,%r12
  411aa7:	55                   	push   %rbp
  411aa8:	53                   	push   %rbx
  411aa9:	48 83 ec 08          	sub    $0x8,%rsp
  411aad:	48 85 f6             	test   %rsi,%rsi
  411ab0:	48 c7 07 00 00 00 00 	movq   $0x0,(%rdi)
  411ab7:	48 c7 47 08 00 00 00 	movq   $0x0,0x8(%rdi)
  411abe:	00 
  411abf:	48 c7 47 10 00 00 00 	movq   $0x0,0x10(%rdi)
  411ac6:	00 
  411ac7:	74 6b                	je     411b34 <_ZNSt6vectorI13TopologyEntrySaIS0_EEC1EmRKS0_RKS1_+0x94>
  411ac9:	48 b8 55 55 55 55 55 	movabs $0x1555555555555555,%rax
  411ad0:	55 55 15 
  411ad3:	48 89 f3             	mov    %rsi,%rbx
  411ad6:	48 39 c6             	cmp    %rax,%rsi
  411ad9:	77 73                	ja     411b4e <_ZNSt6vectorI13TopologyEntrySaIS0_EEC1EmRKS0_RKS1_+0xae>
  411adb:	48 8d 3c 76          	lea    (%rsi,%rsi,2),%rdi
  411adf:	48 89 d5             	mov    %rdx,%rbp
  411ae2:	4c 8d 2c bd 00 00 00 	lea    0x0(,%rdi,4),%r13
  411ae9:	00 
  411aea:	4c 89 ef             	mov    %r13,%rdi
  411aed:	e8 8e eb ff ff       	callq  410680 <_Znwm@plt>
  411af2:	4a 8d 3c 28          	lea    (%rax,%r13,1),%rdi
  411af6:	49 89 04 24          	mov    %rax,(%r12)
  411afa:	49 89 44 24 08       	mov    %rax,0x8(%r12)
  411aff:	49 89 7c 24 10       	mov    %rdi,0x10(%r12)
  411b04:	0f 1f 40 00          	nopl   0x0(%rax)
  411b08:	48 85 c0             	test   %rax,%rax
  411b0b:	74 0d                	je     411b1a <_ZNSt6vectorI13TopologyEntrySaIS0_EEC1EmRKS0_RKS1_+0x7a>
  411b0d:	48 8b 55 00          	mov    0x0(%rbp),%rdx
  411b11:	48 89 10             	mov    %rdx,(%rax)
  411b14:	8b 55 08             	mov    0x8(%rbp),%edx
  411b17:	89 50 08             	mov    %edx,0x8(%rax)
  411b1a:	48 83 c0 0c          	add    $0xc,%rax
  411b1e:	48 83 eb 01          	sub    $0x1,%rbx
  411b22:	75 e4                	jne    411b08 <_ZNSt6vectorI13TopologyEntrySaIS0_EEC1EmRKS0_RKS1_+0x68>
  411b24:	49 89 7c 24 08       	mov    %rdi,0x8(%r12)
  411b29:	48 83 c4 08          	add    $0x8,%rsp
  411b2d:	5b                   	pop    %rbx
  411b2e:	5d                   	pop    %rbp
  411b2f:	41 5c                	pop    %r12
  411b31:	41 5d                	pop    %r13
  411b33:	c3                   	retq   
  411b34:	48 c7 47 10 00 00 00 	movq   $0x0,0x10(%rdi)
  411b3b:	00 
  411b3c:	31 ff                	xor    %edi,%edi
  411b3e:	49 89 7c 24 08       	mov    %rdi,0x8(%r12)
  411b43:	48 83 c4 08          	add    $0x8,%rsp
  411b47:	5b                   	pop    %rbx
  411b48:	5d                   	pop    %rbp
  411b49:	41 5c                	pop    %r12
  411b4b:	41 5d                	pop    %r13
  411b4d:	c3                   	retq   
  411b4e:	e8 2d e9 ff ff       	callq  410480 <_ZSt17__throw_bad_allocv@plt>
  411b53:	66 2e 0f 1f 84 00 00 	nopw   %cs:0x0(%rax,%rax,1)
  411b5a:	00 00 00 
  411b5d:	0f 1f 00             	nopl   (%rax)

0000000000411b60 <_ZNSt6vectorI13TopologyEntrySaIS0_EEC1ERKS2_>:
  411b60:	41 54                	push   %r12
  411b62:	55                   	push   %rbp
  411b63:	48 ba ab aa aa aa aa 	movabs $0xaaaaaaaaaaaaaaab,%rdx
  411b6a:	aa aa aa 
  411b6d:	53                   	push   %rbx
  411b6e:	48 8b 6e 08          	mov    0x8(%rsi),%rbp
  411b72:	48 89 fb             	mov    %rdi,%rbx
  411b75:	48 2b 2e             	sub    (%rsi),%rbp
  411b78:	49 89 f4             	mov    %rsi,%r12
  411b7b:	48 c7 07 00 00 00 00 	movq   $0x0,(%rdi)
  411b82:	48 c7 47 08 00 00 00 	movq   $0x0,0x8(%rdi)
  411b89:	00 
  411b8a:	48 c7 47 10 00 00 00 	movq   $0x0,0x10(%rdi)
  411b91:	00 
  411b92:	48 89 e8             	mov    %rbp,%rax
  411b95:	48 c1 f8 02          	sar    $0x2,%rax
  411b99:	48 0f af c2          	imul   %rdx,%rax
  411b9d:	48 85 c0             	test   %rax,%rax
  411ba0:	74 17                	je     411bb9 <_ZNSt6vectorI13TopologyEntrySaIS0_EEC1ERKS2_+0x59>
  411ba2:	48 ba 55 55 55 55 55 	movabs $0x1555555555555555,%rdx
  411ba9:	55 55 15 
  411bac:	48 39 d0             	cmp    %rdx,%rax
  411baf:	77 66                	ja     411c17 <_ZNSt6vectorI13TopologyEntrySaIS0_EEC1ERKS2_+0xb7>
  411bb1:	48 89 ef             	mov    %rbp,%rdi
  411bb4:	e8 c7 ea ff ff       	callq  410680 <_Znwm@plt>
  411bb9:	48 89 03             	mov    %rax,(%rbx)
  411bbc:	48 89 43 08          	mov    %rax,0x8(%rbx)
  411bc0:	48 01 c5             	add    %rax,%rbp
  411bc3:	49 8b 7c 24 08       	mov    0x8(%r12),%rdi
  411bc8:	4d 8b 04 24          	mov    (%r12),%r8
  411bcc:	48 89 6b 10          	mov    %rbp,0x10(%rbx)
  411bd0:	49 39 f8             	cmp    %rdi,%r8
  411bd3:	74 39                	je     411c0e <_ZNSt6vectorI13TopologyEntrySaIS0_EEC1ERKS2_+0xae>
  411bd5:	48 89 c1             	mov    %rax,%rcx
  411bd8:	4c 89 c2             	mov    %r8,%rdx
  411bdb:	0f 1f 44 00 00       	nopl   0x0(%rax,%rax,1)
  411be0:	48 85 c9             	test   %rcx,%rcx
  411be3:	74 0c                	je     411bf1 <_ZNSt6vectorI13TopologyEntrySaIS0_EEC1ERKS2_+0x91>
  411be5:	48 8b 32             	mov    (%rdx),%rsi
  411be8:	48 89 31             	mov    %rsi,(%rcx)
  411beb:	8b 72 08             	mov    0x8(%rdx),%esi
  411bee:	89 71 08             	mov    %esi,0x8(%rcx)
  411bf1:	48 83 c2 0c          	add    $0xc,%rdx
  411bf5:	48 83 c1 0c          	add    $0xc,%rcx
  411bf9:	48 39 fa             	cmp    %rdi,%rdx
  411bfc:	75 e2                	jne    411be0 <_ZNSt6vectorI13TopologyEntrySaIS0_EEC1ERKS2_+0x80>
  411bfe:	49 83 c0 0c          	add    $0xc,%r8
  411c02:	4c 29 c2             	sub    %r8,%rdx
  411c05:	48 c1 ea 02          	shr    $0x2,%rdx
  411c09:	48 8d 44 90 0c       	lea    0xc(%rax,%rdx,4),%rax
  411c0e:	48 89 43 08          	mov    %rax,0x8(%rbx)
  411c12:	5b                   	pop    %rbx
  411c13:	5d                   	pop    %rbp
  411c14:	41 5c                	pop    %r12
  411c16:	c3                   	retq   
  411c17:	e8 64 e8 ff ff       	callq  410480 <_ZSt17__throw_bad_allocv@plt>
  411c1c:	0f 1f 40 00          	nopl   0x0(%rax)

0000000000411c20 <_ZNSt6vectorI13TopologyEntrySaIS0_EEC1EOS2_>:
  411c20:	48 c7 47 08 00 00 00 	movq   $0x0,0x8(%rdi)
  411c27:	00 
  411c28:	48 c7 47 10 00 00 00 	movq   $0x0,0x10(%rdi)
  411c2f:	00 
  411c30:	48 c7 07 00 00 00 00 	movq   $0x0,(%rdi)
  411c37:	48 8b 06             	mov    (%rsi),%rax
  411c3a:	48 89 07             	mov    %rax,(%rdi)
  411c3d:	48 c7 06 00 00 00 00 	movq   $0x0,(%rsi)
  411c44:	48 8b 56 08          	mov    0x8(%rsi),%rdx
  411c48:	48 8b 47 08          	mov    0x8(%rdi),%rax
  411c4c:	48 89 57 08          	mov    %rdx,0x8(%rdi)
  411c50:	48 89 46 08          	mov    %rax,0x8(%rsi)
  411c54:	48 8b 56 10          	mov    0x10(%rsi),%rdx
  411c58:	48 8b 47 10          	mov    0x10(%rdi),%rax
  411c5c:	48 89 57 10          	mov    %rdx,0x10(%rdi)
  411c60:	48 89 46 10          	mov    %rax,0x10(%rsi)
  411c64:	c3                   	retq   
  411c65:	66 2e 0f 1f 84 00 00 	nopw   %cs:0x0(%rax,%rax,1)
  411c6c:	00 00 00 
  411c6f:	90                   	nop

0000000000411c70 <_ZNSt6vectorI13TopologyEntrySaIS0_EEC1ERKS2_RKS1_>:
  411c70:	41 54                	push   %r12
  411c72:	55                   	push   %rbp
  411c73:	48 ba ab aa aa aa aa 	movabs $0xaaaaaaaaaaaaaaab,%rdx
  411c7a:	aa aa aa 
  411c7d:	53                   	push   %rbx
  411c7e:	48 8b 6e 08          	mov    0x8(%rsi),%rbp
  411c82:	48 89 fb             	mov    %rdi,%rbx
  411c85:	48 2b 2e             	sub    (%rsi),%rbp
  411c88:	49 89 f4             	mov    %rsi,%r12
  411c8b:	48 c7 07 00 00 00 00 	movq   $0x0,(%rdi)
  411c92:	48 c7 47 08 00 00 00 	movq   $0x0,0x8(%rdi)
  411c99:	00 
  411c9a:	48 c7 47 10 00 00 00 	movq   $0x0,0x10(%rdi)
  411ca1:	00 
  411ca2:	48 89 e8             	mov    %rbp,%rax
  411ca5:	48 c1 f8 02          	sar    $0x2,%rax
  411ca9:	48 0f af c2          	imul   %rdx,%rax
  411cad:	48 85 c0             	test   %rax,%rax
  411cb0:	74 17                	je     411cc9 <_ZNSt6vectorI13TopologyEntrySaIS0_EEC1ERKS2_RKS1_+0x59>
  411cb2:	48 ba 55 55 55 55 55 	movabs $0x1555555555555555,%rdx
  411cb9:	55 55 15 
  411cbc:	48 39 d0             	cmp    %rdx,%rax
  411cbf:	77 66                	ja     411d27 <_ZNSt6vectorI13TopologyEntrySaIS0_EEC1ERKS2_RKS1_+0xb7>
  411cc1:	48 89 ef             	mov    %rbp,%rdi
  411cc4:	e8 b7 e9 ff ff       	callq  410680 <_Znwm@plt>
  411cc9:	48 89 03             	mov    %rax,(%rbx)
  411ccc:	48 89 43 08          	mov    %rax,0x8(%rbx)
  411cd0:	48 01 c5             	add    %rax,%rbp
  411cd3:	49 8b 7c 24 08       	mov    0x8(%r12),%rdi
  411cd8:	4d 8b 04 24          	mov    (%r12),%r8
  411cdc:	48 89 6b 10          	mov    %rbp,0x10(%rbx)
  411ce0:	49 39 f8             	cmp    %rdi,%r8
  411ce3:	74 39                	je     411d1e <_ZNSt6vectorI13TopologyEntrySaIS0_EEC1ERKS2_RKS1_+0xae>
  411ce5:	48 89 c1             	mov    %rax,%rcx
  411ce8:	4c 89 c2             	mov    %r8,%rdx
  411ceb:	0f 1f 44 00 00       	nopl   0x0(%rax,%rax,1)
  411cf0:	48 85 c9             	test   %rcx,%rcx
  411cf3:	74 0c                	je     411d01 <_ZNSt6vectorI13TopologyEntrySaIS0_EEC1ERKS2_RKS1_+0x91>
  411cf5:	48 8b 32             	mov    (%rdx),%rsi
  411cf8:	48 89 31             	mov    %rsi,(%rcx)
  411cfb:	8b 72 08             	mov    0x8(%rdx),%esi
  411cfe:	89 71 08             	mov    %esi,0x8(%rcx)
  411d01:	48 83 c2 0c          	add    $0xc,%rdx
  411d05:	48 83 c1 0c          	add    $0xc,%rcx
  411d09:	48 39 fa             	cmp    %rdi,%rdx
  411d0c:	75 e2                	jne    411cf0 <_ZNSt6vectorI13TopologyEntrySaIS0_EEC1ERKS2_RKS1_+0x80>
  411d0e:	49 83 c0 0c          	add    $0xc,%r8
  411d12:	4c 29 c2             	sub    %r8,%rdx
  411d15:	48 c1 ea 02          	shr    $0x2,%rdx
  411d19:	48 8d 44 90 0c       	lea    0xc(%rax,%rdx,4),%rax
  411d1e:	48 89 43 08          	mov    %rax,0x8(%rbx)
  411d22:	5b                   	pop    %rbx
  411d23:	5d                   	pop    %rbp
  411d24:	41 5c                	pop    %r12
  411d26:	c3                   	retq   
  411d27:	e8 54 e7 ff ff       	callq  410480 <_ZSt17__throw_bad_allocv@plt>
  411d2c:	0f 1f 40 00          	nopl   0x0(%rax)

0000000000411d30 <_ZNSt6vectorI13TopologyEntrySaIS0_EEC1EOS2_RKS1_>:
  411d30:	48 c7 47 08 00 00 00 	movq   $0x0,0x8(%rdi)
  411d37:	00 
  411d38:	48 c7 47 10 00 00 00 	movq   $0x0,0x10(%rdi)
  411d3f:	00 
  411d40:	48 c7 07 00 00 00 00 	movq   $0x0,(%rdi)
  411d47:	48 8b 06             	mov    (%rsi),%rax
  411d4a:	48 89 07             	mov    %rax,(%rdi)
  411d4d:	48 c7 06 00 00 00 00 	movq   $0x0,(%rsi)
  411d54:	48 8b 56 08          	mov    0x8(%rsi),%rdx
  411d58:	48 8b 47 08          	mov    0x8(%rdi),%rax
  411d5c:	48 89 57 08          	mov    %rdx,0x8(%rdi)
  411d60:	48 89 46 08          	mov    %rax,0x8(%rsi)
  411d64:	48 8b 56 10          	mov    0x10(%rsi),%rdx
  411d68:	48 8b 47 10          	mov    0x10(%rdi),%rax
  411d6c:	48 89 57 10          	mov    %rdx,0x10(%rdi)
  411d70:	48 89 46 10          	mov    %rax,0x10(%rsi)
  411d74:	c3                   	retq   
  411d75:	66 2e 0f 1f 84 00 00 	nopw   %cs:0x0(%rax,%rax,1)
  411d7c:	00 00 00 
  411d7f:	90                   	nop

0000000000411d80 <_ZNSt6vectorI13TopologyEntrySaIS0_EEC1ESt16initializer_listIS0_ERKS1_>:
  411d80:	41 55                	push   %r13
  411d82:	4c 8d 2c 52          	lea    (%rdx,%rdx,2),%r13
  411d86:	48 ba ab aa aa aa aa 	movabs $0xaaaaaaaaaaaaaaab,%rdx
  411d8d:	aa aa aa 
  411d90:	41 54                	push   %r12
  411d92:	55                   	push   %rbp
  411d93:	49 89 f4             	mov    %rsi,%r12
  411d96:	49 c1 e5 02          	shl    $0x2,%r13
  411d9a:	53                   	push   %rbx
  411d9b:	48 89 fd             	mov    %rdi,%rbp
  411d9e:	4c 89 e8             	mov    %r13,%rax
  411da1:	4a 8d 1c 2e          	lea    (%rsi,%r13,1),%rbx
  411da5:	48 c1 f8 02          	sar    $0x2,%rax
  411da9:	48 83 ec 08          	sub    $0x8,%rsp
  411dad:	48 c7 07 00 00 00 00 	movq   $0x0,(%rdi)
  411db4:	48 0f af c2          	imul   %rdx,%rax
  411db8:	48 c7 47 08 00 00 00 	movq   $0x0,0x8(%rdi)
  411dbf:	00 
  411dc0:	48 c7 47 10 00 00 00 	movq   $0x0,0x10(%rdi)
  411dc7:	00 
  411dc8:	48 85 c0             	test   %rax,%rax
  411dcb:	74 70                	je     411e3d <_ZNSt6vectorI13TopologyEntrySaIS0_EEC1ESt16initializer_listIS0_ERKS1_+0xbd>
  411dcd:	48 ba 55 55 55 55 55 	movabs $0x1555555555555555,%rdx
  411dd4:	55 55 15 
  411dd7:	48 39 d0             	cmp    %rdx,%rax
  411dda:	77 65                	ja     411e41 <_ZNSt6vectorI13TopologyEntrySaIS0_EEC1ESt16initializer_listIS0_ERKS1_+0xc1>
  411ddc:	4c 89 ef             	mov    %r13,%rdi
  411ddf:	e8 9c e8 ff ff       	callq  410680 <_Znwm@plt>
  411de4:	49 01 c5             	add    %rax,%r13
  411de7:	49 39 dc             	cmp    %rbx,%r12
  411dea:	48 89 45 00          	mov    %rax,0x0(%rbp)
  411dee:	4c 89 6d 10          	mov    %r13,0x10(%rbp)
  411df2:	74 3a                	je     411e2e <_ZNSt6vectorI13TopologyEntrySaIS0_EEC1ESt16initializer_listIS0_ERKS1_+0xae>
  411df4:	48 89 c1             	mov    %rax,%rcx
  411df7:	4c 89 e2             	mov    %r12,%rdx
  411dfa:	66 0f 1f 44 00 00    	nopw   0x0(%rax,%rax,1)
  411e00:	48 85 c9             	test   %rcx,%rcx
  411e03:	74 0c                	je     411e11 <_ZNSt6vectorI13TopologyEntrySaIS0_EEC1ESt16initializer_listIS0_ERKS1_+0x91>
  411e05:	48 8b 32             	mov    (%rdx),%rsi
  411e08:	48 89 31             	mov    %rsi,(%rcx)
  411e0b:	8b 72 08             	mov    0x8(%rdx),%esi
  411e0e:	89 71 08             	mov    %esi,0x8(%rcx)
  411e11:	48 83 c2 0c          	add    $0xc,%rdx
  411e15:	48 83 c1 0c          	add    $0xc,%rcx
  411e19:	48 39 d3             	cmp    %rdx,%rbx
  411e1c:	75 e2                	jne    411e00 <_ZNSt6vectorI13TopologyEntrySaIS0_EEC1ESt16initializer_listIS0_ERKS1_+0x80>
  411e1e:	49 83 c4 0c          	add    $0xc,%r12
  411e22:	4c 29 e3             	sub    %r12,%rbx
  411e25:	48 c1 eb 02          	shr    $0x2,%rbx
  411e29:	48 8d 44 98 0c       	lea    0xc(%rax,%rbx,4),%rax
  411e2e:	48 89 45 08          	mov    %rax,0x8(%rbp)
  411e32:	48 83 c4 08          	add    $0x8,%rsp
  411e36:	5b                   	pop    %rbx
  411e37:	5d                   	pop    %rbp
  411e38:	41 5c                	pop    %r12
  411e3a:	41 5d                	pop    %r13
  411e3c:	c3                   	retq   
  411e3d:	31 c0                	xor    %eax,%eax
  411e3f:	eb a3                	jmp    411de4 <_ZNSt6vectorI13TopologyEntrySaIS0_EEC1ESt16initializer_listIS0_ERKS1_+0x64>
  411e41:	e8 3a e6 ff ff       	callq  410480 <_ZSt17__throw_bad_allocv@plt>
  411e46:	48 8b 7d 00          	mov    0x0(%rbp),%rdi
  411e4a:	48 89 c3             	mov    %rax,%rbx
  411e4d:	48 85 ff             	test   %rdi,%rdi
  411e50:	74 05                	je     411e57 <_ZNSt6vectorI13TopologyEntrySaIS0_EEC1ESt16initializer_listIS0_ERKS1_+0xd7>
  411e52:	e8 f9 e7 ff ff       	callq  410650 <_ZdlPv@plt>
  411e57:	48 89 df             	mov    %rbx,%rdi
  411e5a:	e8 c1 ea ff ff       	callq  410920 <_Unwind_Resume@plt>
  411e5f:	90                   	nop

0000000000411e60 <_ZNSt6vectorI13TopologyEntrySaIS0_EED1Ev>:
  411e60:	48 8b 3f             	mov    (%rdi),%rdi
  411e63:	48 85 ff             	test   %rdi,%rdi
  411e66:	74 08                	je     411e70 <_ZNSt6vectorI13TopologyEntrySaIS0_EED1Ev+0x10>
  411e68:	e9 e3 e7 ff ff       	jmpq   410650 <_ZdlPv@plt>
  411e6d:	0f 1f 00             	nopl   (%rax)
  411e70:	f3 c3                	repz retq 
  411e72:	66 2e 0f 1f 84 00 00 	nopw   %cs:0x0(%rax,%rax,1)
  411e79:	00 00 00 
  411e7c:	0f 1f 40 00          	nopl   0x0(%rax)

0000000000411e80 <_ZNSt6vectorI13TopologyEntrySaIS0_EEaSERKS2_>:
  411e80:	48 39 fe             	cmp    %rdi,%rsi
  411e83:	41 56                	push   %r14
  411e85:	41 55                	push   %r13
  411e87:	41 54                	push   %r12
  411e89:	55                   	push   %rbp
  411e8a:	48 89 fd             	mov    %rdi,%rbp
  411e8d:	53                   	push   %rbx
  411e8e:	0f 84 8e 00 00 00    	je     411f22 <_ZNSt6vectorI13TopologyEntrySaIS0_EEaSERKS2_+0xa2>
  411e94:	4c 8b 6e 08          	mov    0x8(%rsi),%r13
  411e98:	48 8b 1e             	mov    (%rsi),%rbx
  411e9b:	49 b9 ab aa aa aa aa 	movabs $0xaaaaaaaaaaaaaaab,%r9
  411ea2:	aa aa aa 
  411ea5:	48 8b 3f             	mov    (%rdi),%rdi
  411ea8:	48 8b 45 10          	mov    0x10(%rbp),%rax
  411eac:	4d 89 ec             	mov    %r13,%r12
  411eaf:	49 29 dc             	sub    %rbx,%r12
  411eb2:	48 29 f8             	sub    %rdi,%rax
  411eb5:	4d 89 e0             	mov    %r12,%r8
  411eb8:	48 c1 f8 02          	sar    $0x2,%rax
  411ebc:	49 c1 f8 02          	sar    $0x2,%r8
  411ec0:	4d 0f af c1          	imul   %r9,%r8
  411ec4:	49 0f af c1          	imul   %r9,%rax
  411ec8:	4c 89 c6             	mov    %r8,%rsi
  411ecb:	4c 39 c0             	cmp    %r8,%rax
  411ece:	0f 82 bc 00 00 00    	jb     411f90 <_ZNSt6vectorI13TopologyEntrySaIS0_EEaSERKS2_+0x110>
  411ed4:	48 8b 55 08          	mov    0x8(%rbp),%rdx
  411ed8:	48 89 d0             	mov    %rdx,%rax
  411edb:	48 29 f8             	sub    %rdi,%rax
  411ede:	48 89 c1             	mov    %rax,%rcx
  411ee1:	48 c1 f9 02          	sar    $0x2,%rcx
  411ee5:	49 0f af c9          	imul   %r9,%rcx
  411ee9:	49 39 c8             	cmp    %rcx,%r8
  411eec:	77 42                	ja     411f30 <_ZNSt6vectorI13TopologyEntrySaIS0_EEaSERKS2_+0xb0>
  411eee:	4d 85 c0             	test   %r8,%r8
  411ef1:	48 89 f8             	mov    %rdi,%rax
  411ef4:	7e 25                	jle    411f1b <_ZNSt6vectorI13TopologyEntrySaIS0_EEaSERKS2_+0x9b>
  411ef6:	66 2e 0f 1f 84 00 00 	nopw   %cs:0x0(%rax,%rax,1)
  411efd:	00 00 00 
  411f00:	48 8b 13             	mov    (%rbx),%rdx
  411f03:	48 83 c0 0c          	add    $0xc,%rax
  411f07:	48 83 c3 0c          	add    $0xc,%rbx
  411f0b:	48 89 50 f4          	mov    %rdx,-0xc(%rax)
  411f0f:	8b 53 fc             	mov    -0x4(%rbx),%edx
  411f12:	89 50 fc             	mov    %edx,-0x4(%rax)
  411f15:	48 83 ee 01          	sub    $0x1,%rsi
  411f19:	75 e5                	jne    411f00 <_ZNSt6vectorI13TopologyEntrySaIS0_EEaSERKS2_+0x80>
  411f1b:	49 01 fc             	add    %rdi,%r12
  411f1e:	4c 89 65 08          	mov    %r12,0x8(%rbp)
  411f22:	5b                   	pop    %rbx
  411f23:	48 89 e8             	mov    %rbp,%rax
  411f26:	5d                   	pop    %rbp
  411f27:	41 5c                	pop    %r12
  411f29:	41 5d                	pop    %r13
  411f2b:	41 5e                	pop    %r14
  411f2d:	c3                   	retq   
  411f2e:	66 90                	xchg   %ax,%ax
  411f30:	48 01 d8             	add    %rbx,%rax
  411f33:	48 85 c9             	test   %rcx,%rcx
  411f36:	48 89 fe             	mov    %rdi,%rsi
  411f39:	7e 46                	jle    411f81 <_ZNSt6vectorI13TopologyEntrySaIS0_EEaSERKS2_+0x101>
  411f3b:	0f 1f 44 00 00       	nopl   0x0(%rax,%rax,1)
  411f40:	4c 8b 03             	mov    (%rbx),%r8
  411f43:	48 83 c6 0c          	add    $0xc,%rsi
  411f47:	48 83 c3 0c          	add    $0xc,%rbx
  411f4b:	4c 89 46 f4          	mov    %r8,-0xc(%rsi)
  411f4f:	44 8b 43 fc          	mov    -0x4(%rbx),%r8d
  411f53:	44 89 46 fc          	mov    %r8d,-0x4(%rsi)
  411f57:	48 83 e9 01          	sub    $0x1,%rcx
  411f5b:	75 e3                	jne    411f40 <_ZNSt6vectorI13TopologyEntrySaIS0_EEaSERKS2_+0xc0>
  411f5d:	49 39 c5             	cmp    %rax,%r13
  411f60:	74 b9                	je     411f1b <_ZNSt6vectorI13TopologyEntrySaIS0_EEaSERKS2_+0x9b>
  411f62:	66 0f 1f 44 00 00    	nopw   0x0(%rax,%rax,1)
  411f68:	48 85 d2             	test   %rdx,%rdx
  411f6b:	74 0c                	je     411f79 <_ZNSt6vectorI13TopologyEntrySaIS0_EEaSERKS2_+0xf9>
  411f6d:	48 8b 08             	mov    (%rax),%rcx
  411f70:	48 89 0a             	mov    %rcx,(%rdx)
  411f73:	8b 48 08             	mov    0x8(%rax),%ecx
  411f76:	89 4a 08             	mov    %ecx,0x8(%rdx)
  411f79:	48 83 c0 0c          	add    $0xc,%rax
  411f7d:	48 83 c2 0c          	add    $0xc,%rdx
  411f81:	49 39 c5             	cmp    %rax,%r13
  411f84:	75 e2                	jne    411f68 <_ZNSt6vectorI13TopologyEntrySaIS0_EEaSERKS2_+0xe8>
  411f86:	eb 93                	jmp    411f1b <_ZNSt6vectorI13TopologyEntrySaIS0_EEaSERKS2_+0x9b>
  411f88:	0f 1f 84 00 00 00 00 	nopl   0x0(%rax,%rax,1)
  411f8f:	00 
  411f90:	45 31 f6             	xor    %r14d,%r14d
  411f93:	4d 85 c0             	test   %r8,%r8
  411f96:	74 1e                	je     411fb6 <_ZNSt6vectorI13TopologyEntrySaIS0_EEaSERKS2_+0x136>
  411f98:	48 b8 55 55 55 55 55 	movabs $0x1555555555555555,%rax
  411f9f:	55 55 15 
  411fa2:	49 39 c0             	cmp    %rax,%r8
  411fa5:	77 51                	ja     411ff8 <_ZNSt6vectorI13TopologyEntrySaIS0_EEaSERKS2_+0x178>
  411fa7:	4c 89 e7             	mov    %r12,%rdi
  411faa:	e8 d1 e6 ff ff       	callq  410680 <_Znwm@plt>
  411faf:	48 8b 7d 00          	mov    0x0(%rbp),%rdi
  411fb3:	49 89 c6             	mov    %rax,%r14
  411fb6:	4c 39 eb             	cmp    %r13,%rbx
  411fb9:	4c 89 f2             	mov    %r14,%rdx
  411fbc:	74 20                	je     411fde <_ZNSt6vectorI13TopologyEntrySaIS0_EEaSERKS2_+0x15e>
  411fbe:	66 90                	xchg   %ax,%ax
  411fc0:	48 85 d2             	test   %rdx,%rdx
  411fc3:	74 0c                	je     411fd1 <_ZNSt6vectorI13TopologyEntrySaIS0_EEaSERKS2_+0x151>
  411fc5:	48 8b 0b             	mov    (%rbx),%rcx
  411fc8:	48 89 0a             	mov    %rcx,(%rdx)
  411fcb:	8b 4b 08             	mov    0x8(%rbx),%ecx
  411fce:	89 4a 08             	mov    %ecx,0x8(%rdx)
  411fd1:	48 83 c3 0c          	add    $0xc,%rbx
  411fd5:	48 83 c2 0c          	add    $0xc,%rdx
  411fd9:	49 39 dd             	cmp    %rbx,%r13
  411fdc:	75 e2                	jne    411fc0 <_ZNSt6vectorI13TopologyEntrySaIS0_EEaSERKS2_+0x140>
  411fde:	48 85 ff             	test   %rdi,%rdi
  411fe1:	74 05                	je     411fe8 <_ZNSt6vectorI13TopologyEntrySaIS0_EEaSERKS2_+0x168>
  411fe3:	e8 68 e6 ff ff       	callq  410650 <_ZdlPv@plt>
  411fe8:	4d 01 f4             	add    %r14,%r12
  411feb:	4c 89 75 00          	mov    %r14,0x0(%rbp)
  411fef:	4c 89 65 10          	mov    %r12,0x10(%rbp)
  411ff3:	e9 26 ff ff ff       	jmpq   411f1e <_ZNSt6vectorI13TopologyEntrySaIS0_EEaSERKS2_+0x9e>
  411ff8:	e8 83 e4 ff ff       	callq  410480 <_ZSt17__throw_bad_allocv@plt>
  411ffd:	0f 1f 00             	nopl   (%rax)

0000000000412000 <_ZNSt6vectorI13TopologyEntrySaIS0_EEaSEOS2_>:
  412000:	53                   	push   %rbx
  412001:	48 89 fb             	mov    %rdi,%rbx
  412004:	48 8b 3f             	mov    (%rdi),%rdi
  412007:	48 c7 43 08 00 00 00 	movq   $0x0,0x8(%rbx)
  41200e:	00 
  41200f:	48 c7 43 10 00 00 00 	movq   $0x0,0x10(%rbx)
  412016:	00 
  412017:	48 c7 03 00 00 00 00 	movq   $0x0,(%rbx)
  41201e:	48 8b 06             	mov    (%rsi),%rax
  412021:	48 85 ff             	test   %rdi,%rdi
  412024:	48 89 03             	mov    %rax,(%rbx)
  412027:	48 c7 06 00 00 00 00 	movq   $0x0,(%rsi)
  41202e:	48 8b 56 08          	mov    0x8(%rsi),%rdx
  412032:	48 8b 43 08          	mov    0x8(%rbx),%rax
  412036:	48 89 53 08          	mov    %rdx,0x8(%rbx)
  41203a:	48 89 46 08          	mov    %rax,0x8(%rsi)
  41203e:	48 8b 56 10          	mov    0x10(%rsi),%rdx
  412042:	48 8b 43 10          	mov    0x10(%rbx),%rax
  412046:	48 89 53 10          	mov    %rdx,0x10(%rbx)
  41204a:	48 89 46 10          	mov    %rax,0x10(%rsi)
  41204e:	74 05                	je     412055 <_ZNSt6vectorI13TopologyEntrySaIS0_EEaSEOS2_+0x55>
  412050:	e8 fb e5 ff ff       	callq  410650 <_ZdlPv@plt>
  412055:	48 89 d8             	mov    %rbx,%rax
  412058:	5b                   	pop    %rbx
  412059:	c3                   	retq   
  41205a:	66 0f 1f 44 00 00    	nopw   0x0(%rax,%rax,1)

0000000000412060 <_ZNSt6vectorI13TopologyEntrySaIS0_EE5beginEv>:
  412060:	48 8b 07             	mov    (%rdi),%rax
  412063:	c3                   	retq   
  412064:	66 2e 0f 1f 84 00 00 	nopw   %cs:0x0(%rax,%rax,1)
  41206b:	00 00 00 
  41206e:	66 90                	xchg   %ax,%ax

0000000000412070 <_ZNKSt6vectorI13TopologyEntrySaIS0_EE5beginEv>:
  412070:	48 8b 07             	mov    (%rdi),%rax
  412073:	c3                   	retq   
  412074:	66 2e 0f 1f 84 00 00 	nopw   %cs:0x0(%rax,%rax,1)
  41207b:	00 00 00 
  41207e:	66 90                	xchg   %ax,%ax

0000000000412080 <_ZNSt6vectorI13TopologyEntrySaIS0_EE3endEv>:
  412080:	48 8b 47 08          	mov    0x8(%rdi),%rax
  412084:	c3                   	retq   
  412085:	66 2e 0f 1f 84 00 00 	nopw   %cs:0x0(%rax,%rax,1)
  41208c:	00 00 00 
  41208f:	90                   	nop

0000000000412090 <_ZNKSt6vectorI13TopologyEntrySaIS0_EE3endEv>:
  412090:	48 8b 47 08          	mov    0x8(%rdi),%rax
  412094:	c3                   	retq   
  412095:	66 2e 0f 1f 84 00 00 	nopw   %cs:0x0(%rax,%rax,1)
  41209c:	00 00 00 
  41209f:	90                   	nop

00000000004120a0 <_ZNSt6vectorI13TopologyEntrySaIS0_EE6rbeginEv>:
  4120a0:	48 8b 56 08          	mov    0x8(%rsi),%rdx
  4120a4:	48 89 f8             	mov    %rdi,%rax
  4120a7:	48 89 17             	mov    %rdx,(%rdi)
  4120aa:	c3                   	retq   
  4120ab:	0f 1f 44 00 00       	nopl   0x0(%rax,%rax,1)

00000000004120b0 <_ZNKSt6vectorI13TopologyEntrySaIS0_EE6rbeginEv>:
  4120b0:	48 8b 56 08          	mov    0x8(%rsi),%rdx
  4120b4:	48 89 f8             	mov    %rdi,%rax
  4120b7:	48 89 17             	mov    %rdx,(%rdi)
  4120ba:	c3                   	retq   
  4120bb:	0f 1f 44 00 00       	nopl   0x0(%rax,%rax,1)

00000000004120c0 <_ZNSt6vectorI13TopologyEntrySaIS0_EE4rendEv>:
  4120c0:	48 8b 16             	mov    (%rsi),%rdx
  4120c3:	48 89 f8             	mov    %rdi,%rax
  4120c6:	48 89 17             	mov    %rdx,(%rdi)
  4120c9:	c3                   	retq   
  4120ca:	66 0f 1f 44 00 00    	nopw   0x0(%rax,%rax,1)

00000000004120d0 <_ZNKSt6vectorI13TopologyEntrySaIS0_EE4rendEv>:
  4120d0:	48 8b 16             	mov    (%rsi),%rdx
  4120d3:	48 89 f8             	mov    %rdi,%rax
  4120d6:	48 89 17             	mov    %rdx,(%rdi)
  4120d9:	c3                   	retq   
  4120da:	66 0f 1f 44 00 00    	nopw   0x0(%rax,%rax,1)

00000000004120e0 <_ZNKSt6vectorI13TopologyEntrySaIS0_EE6cbeginEv>:
  4120e0:	48 8b 07             	mov    (%rdi),%rax
  4120e3:	c3                   	retq   
  4120e4:	66 2e 0f 1f 84 00 00 	nopw   %cs:0x0(%rax,%rax,1)
  4120eb:	00 00 00 
  4120ee:	66 90                	xchg   %ax,%ax

00000000004120f0 <_ZNKSt6vectorI13TopologyEntrySaIS0_EE4cendEv>:
  4120f0:	48 8b 47 08          	mov    0x8(%rdi),%rax
  4120f4:	c3                   	retq   
  4120f5:	66 2e 0f 1f 84 00 00 	nopw   %cs:0x0(%rax,%rax,1)
  4120fc:	00 00 00 
  4120ff:	90                   	nop

0000000000412100 <_ZNKSt6vectorI13TopologyEntrySaIS0_EE7crbeginEv>:
  412100:	48 8b 56 08          	mov    0x8(%rsi),%rdx
  412104:	48 89 f8             	mov    %rdi,%rax
  412107:	48 89 17             	mov    %rdx,(%rdi)
  41210a:	c3                   	retq   
  41210b:	0f 1f 44 00 00       	nopl   0x0(%rax,%rax,1)

0000000000412110 <_ZNKSt6vectorI13TopologyEntrySaIS0_EE5crendEv>:
  412110:	48 8b 16             	mov    (%rsi),%rdx
  412113:	48 89 f8             	mov    %rdi,%rax
  412116:	48 89 17             	mov    %rdx,(%rdi)
  412119:	c3                   	retq   
  41211a:	66 0f 1f 44 00 00    	nopw   0x0(%rax,%rax,1)

0000000000412120 <_ZNKSt6vectorI13TopologyEntrySaIS0_EE4sizeEv>:
  412120:	48 8b 47 08          	mov    0x8(%rdi),%rax
  412124:	48 2b 07             	sub    (%rdi),%rax
  412127:	48 ba ab aa aa aa aa 	movabs $0xaaaaaaaaaaaaaaab,%rdx
  41212e:	aa aa aa 
  412131:	48 c1 f8 02          	sar    $0x2,%rax
  412135:	48 0f af c2          	imul   %rdx,%rax
  412139:	c3                   	retq   
  41213a:	66 0f 1f 44 00 00    	nopw   0x0(%rax,%rax,1)

0000000000412140 <_ZNKSt6vectorI13TopologyEntrySaIS0_EE8max_sizeEv>:
  412140:	48 b8 55 55 55 55 55 	movabs $0x1555555555555555,%rax
  412147:	55 55 15 
  41214a:	c3                   	retq   
  41214b:	0f 1f 44 00 00       	nopl   0x0(%rax,%rax,1)

0000000000412150 <_ZNKSt6vectorI13TopologyEntrySaIS0_EE8capacityEv>:
  412150:	48 8b 47 10          	mov    0x10(%rdi),%rax
  412154:	48 2b 07             	sub    (%rdi),%rax
  412157:	48 ba ab aa aa aa aa 	movabs $0xaaaaaaaaaaaaaaab,%rdx
  41215e:	aa aa aa 
  412161:	48 c1 f8 02          	sar    $0x2,%rax
  412165:	48 0f af c2          	imul   %rdx,%rax
  412169:	c3                   	retq   
  41216a:	66 0f 1f 44 00 00    	nopw   0x0(%rax,%rax,1)

0000000000412170 <_ZNKSt6vectorI13TopologyEntrySaIS0_EE5emptyEv>:
  412170:	48 8b 47 08          	mov    0x8(%rdi),%rax
  412174:	48 39 07             	cmp    %rax,(%rdi)
  412177:	0f 94 c0             	sete   %al
  41217a:	c3                   	retq   
  41217b:	0f 1f 44 00 00       	nopl   0x0(%rax,%rax,1)

0000000000412180 <_ZNSt6vectorI13TopologyEntrySaIS0_EE7reserveEm>:
  412180:	41 57                	push   %r15
  412182:	41 56                	push   %r14
  412184:	48 b8 55 55 55 55 55 	movabs $0x1555555555555555,%rax
  41218b:	55 55 15 
  41218e:	41 55                	push   %r13
  412190:	41 54                	push   %r12
  412192:	55                   	push   %rbp
  412193:	53                   	push   %rbx
  412194:	48 83 ec 08          	sub    $0x8,%rsp
  412198:	48 39 c6             	cmp    %rax,%rsi
  41219b:	0f 87 bf 00 00 00    	ja     412260 <_ZNSt6vectorI13TopologyEntrySaIS0_EE7reserveEm+0xe0>
  4121a1:	48 8b 1f             	mov    (%rdi),%rbx
  4121a4:	48 8b 47 10          	mov    0x10(%rdi),%rax
  4121a8:	48 ba ab aa aa aa aa 	movabs $0xaaaaaaaaaaaaaaab,%rdx
  4121af:	aa aa aa 
  4121b2:	49 89 fe             	mov    %rdi,%r14
  4121b5:	48 89 f5             	mov    %rsi,%rbp
  4121b8:	48 29 d8             	sub    %rbx,%rax
  4121bb:	48 c1 f8 02          	sar    $0x2,%rax
  4121bf:	48 0f af c2          	imul   %rdx,%rax
  4121c3:	48 39 c6             	cmp    %rax,%rsi
  4121c6:	77 18                	ja     4121e0 <_ZNSt6vectorI13TopologyEntrySaIS0_EE7reserveEm+0x60>
  4121c8:	48 83 c4 08          	add    $0x8,%rsp
  4121cc:	5b                   	pop    %rbx
  4121cd:	5d                   	pop    %rbp
  4121ce:	41 5c                	pop    %r12
  4121d0:	41 5d                	pop    %r13
  4121d2:	41 5e                	pop    %r14
  4121d4:	41 5f                	pop    %r15
  4121d6:	c3                   	retq   
  4121d7:	66 0f 1f 84 00 00 00 	nopw   0x0(%rax,%rax,1)
  4121de:	00 00 
  4121e0:	4c 8b 6f 08          	mov    0x8(%rdi),%r13
  4121e4:	4d 89 ec             	mov    %r13,%r12
  4121e7:	49 29 dc             	sub    %rbx,%r12
  4121ea:	48 85 f6             	test   %rsi,%rsi
  4121ed:	74 69                	je     412258 <_ZNSt6vectorI13TopologyEntrySaIS0_EE7reserveEm+0xd8>
  4121ef:	48 8d 2c 76          	lea    (%rsi,%rsi,2),%rbp
  4121f3:	48 c1 e5 02          	shl    $0x2,%rbp
  4121f7:	48 89 ef             	mov    %rbp,%rdi
  4121fa:	e8 81 e4 ff ff       	callq  410680 <_Znwm@plt>
  4121ff:	49 8b 3e             	mov    (%r14),%rdi
  412202:	49 89 c7             	mov    %rax,%r15
  412205:	4c 39 eb             	cmp    %r13,%rbx
  412208:	4c 89 fa             	mov    %r15,%rdx
  41220b:	74 21                	je     41222e <_ZNSt6vectorI13TopologyEntrySaIS0_EE7reserveEm+0xae>
  41220d:	0f 1f 00             	nopl   (%rax)
  412210:	48 85 d2             	test   %rdx,%rdx
  412213:	74 0c                	je     412221 <_ZNSt6vectorI13TopologyEntrySaIS0_EE7reserveEm+0xa1>
  412215:	48 8b 0b             	mov    (%rbx),%rcx
  412218:	48 89 0a             	mov    %rcx,(%rdx)
  41221b:	8b 4b 08             	mov    0x8(%rbx),%ecx
  41221e:	89 4a 08             	mov    %ecx,0x8(%rdx)
  412221:	48 83 c3 0c          	add    $0xc,%rbx
  412225:	48 83 c2 0c          	add    $0xc,%rdx
  412229:	49 39 dd             	cmp    %rbx,%r13
  41222c:	75 e2                	jne    412210 <_ZNSt6vectorI13TopologyEntrySaIS0_EE7reserveEm+0x90>
  41222e:	48 85 ff             	test   %rdi,%rdi
  412231:	74 05                	je     412238 <_ZNSt6vectorI13TopologyEntrySaIS0_EE7reserveEm+0xb8>
  412233:	e8 18 e4 ff ff       	callq  410650 <_ZdlPv@plt>
  412238:	4d 01 fc             	add    %r15,%r12
  41223b:	4c 01 fd             	add    %r15,%rbp
  41223e:	4d 89 3e             	mov    %r15,(%r14)
  412241:	4d 89 66 08          	mov    %r12,0x8(%r14)
  412245:	49 89 6e 10          	mov    %rbp,0x10(%r14)
  412249:	48 83 c4 08          	add    $0x8,%rsp
  41224d:	5b                   	pop    %rbx
  41224e:	5d                   	pop    %rbp
  41224f:	41 5c                	pop    %r12
  412251:	41 5d                	pop    %r13
  412253:	41 5e                	pop    %r14
  412255:	41 5f                	pop    %r15
  412257:	c3                   	retq   
  412258:	48 89 df             	mov    %rbx,%rdi
  41225b:	45 31 ff             	xor    %r15d,%r15d
  41225e:	eb a5                	jmp    412205 <_ZNSt6vectorI13TopologyEntrySaIS0_EE7reserveEm+0x85>
  412260:	bf 6f ca 42 00       	mov    $0x42ca6f,%edi
  412265:	e8 86 e2 ff ff       	callq  4104f0 <_ZSt20__throw_length_errorPKc@plt>
  41226a:	66 0f 1f 44 00 00    	nopw   0x0(%rax,%rax,1)

0000000000412270 <_ZNSt6vectorI13TopologyEntrySaIS0_EEixEm>:
  412270:	48 8b 07             	mov    (%rdi),%rax
  412273:	48 8d 14 76          	lea    (%rsi,%rsi,2),%rdx
  412277:	48 8d 04 90          	lea    (%rax,%rdx,4),%rax
  41227b:	c3                   	retq   
  41227c:	0f 1f 40 00          	nopl   0x0(%rax)

0000000000412280 <_ZNKSt6vectorI13TopologyEntrySaIS0_EEixEm>:
  412280:	48 8b 07             	mov    (%rdi),%rax
  412283:	48 8d 14 76          	lea    (%rsi,%rsi,2),%rdx
  412287:	48 8d 04 90          	lea    (%rax,%rdx,4),%rax
  41228b:	c3                   	retq   
  41228c:	0f 1f 40 00          	nopl   0x0(%rax)

0000000000412290 <_ZNKSt6vectorI13TopologyEntrySaIS0_EE14_M_range_checkEm>:
  412290:	48 8b 57 08          	mov    0x8(%rdi),%rdx
  412294:	48 2b 17             	sub    (%rdi),%rdx
  412297:	48 b8 ab aa aa aa aa 	movabs $0xaaaaaaaaaaaaaaab,%rax
  41229e:	aa aa aa 
  4122a1:	48 c1 fa 02          	sar    $0x2,%rdx
  4122a5:	48 0f af d0          	imul   %rax,%rdx
  4122a9:	48 39 d6             	cmp    %rdx,%rsi
  4122ac:	73 02                	jae    4122b0 <_ZNKSt6vectorI13TopologyEntrySaIS0_EE14_M_range_checkEm+0x20>
  4122ae:	f3 c3                	repz retq 
  4122b0:	48 83 ec 08          	sub    $0x8,%rsp
  4122b4:	bf 80 ca 42 00       	mov    $0x42ca80,%edi
  4122b9:	31 c0                	xor    %eax,%eax
  4122bb:	e8 30 e5 ff ff       	callq  4107f0 <_ZSt24__throw_out_of_range_fmtPKcz@plt>

00000000004122c0 <_ZNSt6vectorI13TopologyEntrySaIS0_EE2atEm>:
  4122c0:	48 8b 07             	mov    (%rdi),%rax
  4122c3:	48 8b 57 08          	mov    0x8(%rdi),%rdx
  4122c7:	48 b9 ab aa aa aa aa 	movabs $0xaaaaaaaaaaaaaaab,%rcx
  4122ce:	aa aa aa 
  4122d1:	48 29 c2             	sub    %rax,%rdx
  4122d4:	48 c1 fa 02          	sar    $0x2,%rdx
  4122d8:	48 0f af d1          	imul   %rcx,%rdx
  4122dc:	48 39 d6             	cmp    %rdx,%rsi
  4122df:	73 09                	jae    4122ea <_ZNSt6vectorI13TopologyEntrySaIS0_EE2atEm+0x2a>
  4122e1:	48 8d 14 76          	lea    (%rsi,%rsi,2),%rdx
  4122e5:	48 8d 04 90          	lea    (%rax,%rdx,4),%rax
  4122e9:	c3                   	retq   
  4122ea:	48 83 ec 08          	sub    $0x8,%rsp
  4122ee:	bf 80 ca 42 00       	mov    $0x42ca80,%edi
  4122f3:	31 c0                	xor    %eax,%eax
  4122f5:	e8 f6 e4 ff ff       	callq  4107f0 <_ZSt24__throw_out_of_range_fmtPKcz@plt>
  4122fa:	66 0f 1f 44 00 00    	nopw   0x0(%rax,%rax,1)

0000000000412300 <_ZNKSt6vectorI13TopologyEntrySaIS0_EE2atEm>:
  412300:	48 8b 07             	mov    (%rdi),%rax
  412303:	48 8b 57 08          	mov    0x8(%rdi),%rdx
  412307:	48 b9 ab aa aa aa aa 	movabs $0xaaaaaaaaaaaaaaab,%rcx
  41230e:	aa aa aa 
  412311:	48 29 c2             	sub    %rax,%rdx
  412314:	48 c1 fa 02          	sar    $0x2,%rdx
  412318:	48 0f af d1          	imul   %rcx,%rdx
  41231c:	48 39 d6             	cmp    %rdx,%rsi
  41231f:	73 09                	jae    41232a <_ZNKSt6vectorI13TopologyEntrySaIS0_EE2atEm+0x2a>
  412321:	48 8d 14 76          	lea    (%rsi,%rsi,2),%rdx
  412325:	48 8d 04 90          	lea    (%rax,%rdx,4),%rax
  412329:	c3                   	retq   
  41232a:	48 83 ec 08          	sub    $0x8,%rsp
  41232e:	bf 80 ca 42 00       	mov    $0x42ca80,%edi
  412333:	31 c0                	xor    %eax,%eax
  412335:	e8 b6 e4 ff ff       	callq  4107f0 <_ZSt24__throw_out_of_range_fmtPKcz@plt>
  41233a:	66 0f 1f 44 00 00    	nopw   0x0(%rax,%rax,1)

0000000000412340 <_ZNSt6vectorI13TopologyEntrySaIS0_EE5frontEv>:
  412340:	48 8b 07             	mov    (%rdi),%rax
  412343:	c3                   	retq   
  412344:	66 2e 0f 1f 84 00 00 	nopw   %cs:0x0(%rax,%rax,1)
  41234b:	00 00 00 
  41234e:	66 90                	xchg   %ax,%ax

0000000000412350 <_ZNKSt6vectorI13TopologyEntrySaIS0_EE5frontEv>:
  412350:	48 8b 07             	mov    (%rdi),%rax
  412353:	c3                   	retq   
  412354:	66 2e 0f 1f 84 00 00 	nopw   %cs:0x0(%rax,%rax,1)
  41235b:	00 00 00 
  41235e:	66 90                	xchg   %ax,%ax

0000000000412360 <_ZNSt6vectorI13TopologyEntrySaIS0_EE4backEv>:
  412360:	48 8b 47 08          	mov    0x8(%rdi),%rax
  412364:	48 83 e8 0c          	sub    $0xc,%rax
  412368:	c3                   	retq   
  412369:	0f 1f 80 00 00 00 00 	nopl   0x0(%rax)

0000000000412370 <_ZNKSt6vectorI13TopologyEntrySaIS0_EE4backEv>:
  412370:	48 8b 47 08          	mov    0x8(%rdi),%rax
  412374:	48 83 e8 0c          	sub    $0xc,%rax
  412378:	c3                   	retq   
  412379:	0f 1f 80 00 00 00 00 	nopl   0x0(%rax)

0000000000412380 <_ZNSt6vectorI13TopologyEntrySaIS0_EE4dataEv>:
  412380:	48 8b 07             	mov    (%rdi),%rax
  412383:	c3                   	retq   
  412384:	66 2e 0f 1f 84 00 00 	nopw   %cs:0x0(%rax,%rax,1)
  41238b:	00 00 00 
  41238e:	66 90                	xchg   %ax,%ax

0000000000412390 <_ZNKSt6vectorI13TopologyEntrySaIS0_EE4dataEv>:
  412390:	48 8b 07             	mov    (%rdi),%rax
  412393:	c3                   	retq   
  412394:	66 2e 0f 1f 84 00 00 	nopw   %cs:0x0(%rax,%rax,1)
  41239b:	00 00 00 
  41239e:	66 90                	xchg   %ax,%ax

00000000004123a0 <_ZNSt6vectorI13TopologyEntrySaIS0_EE8pop_backEv>:
  4123a0:	48 83 6f 08 0c       	subq   $0xc,0x8(%rdi)
  4123a5:	c3                   	retq   
  4123a6:	66 2e 0f 1f 84 00 00 	nopw   %cs:0x0(%rax,%rax,1)
  4123ad:	00 00 00 

00000000004123b0 <_ZNSt6vectorI13TopologyEntrySaIS0_EE4swapERS2_>:
  4123b0:	48 8b 07             	mov    (%rdi),%rax
  4123b3:	48 8b 16             	mov    (%rsi),%rdx
  4123b6:	48 89 17             	mov    %rdx,(%rdi)
  4123b9:	48 89 06             	mov    %rax,(%rsi)
  4123bc:	48 8b 56 08          	mov    0x8(%rsi),%rdx
  4123c0:	48 8b 47 08          	mov    0x8(%rdi),%rax
  4123c4:	48 89 57 08          	mov    %rdx,0x8(%rdi)
  4123c8:	48 89 46 08          	mov    %rax,0x8(%rsi)
  4123cc:	48 8b 56 10          	mov    0x10(%rsi),%rdx
  4123d0:	48 8b 47 10          	mov    0x10(%rdi),%rax
  4123d4:	48 89 57 10          	mov    %rdx,0x10(%rdi)
  4123d8:	48 89 46 10          	mov    %rax,0x10(%rsi)
  4123dc:	c3                   	retq   
  4123dd:	0f 1f 00             	nopl   (%rax)

00000000004123e0 <_ZNSt6vectorI13TopologyEntrySaIS0_EE5clearEv>:
  4123e0:	48 8b 07             	mov    (%rdi),%rax
  4123e3:	48 89 47 08          	mov    %rax,0x8(%rdi)
  4123e7:	c3                   	retq   
  4123e8:	0f 1f 84 00 00 00 00 	nopl   0x0(%rax,%rax,1)
  4123ef:	00 

00000000004123f0 <_ZNSt6vectorI13TopologyEntrySaIS0_EE18_M_fill_initializeEmRKS0_>:
  4123f0:	48 85 f6             	test   %rsi,%rsi
  4123f3:	4c 8b 0f             	mov    (%rdi),%r9
  4123f6:	74 2d                	je     412425 <_ZNSt6vectorI13TopologyEntrySaIS0_EE18_M_fill_initializeEmRKS0_+0x35>
  4123f8:	4c 89 c8             	mov    %r9,%rax
  4123fb:	48 89 f1             	mov    %rsi,%rcx
  4123fe:	66 90                	xchg   %ax,%ax
  412400:	48 85 c0             	test   %rax,%rax
  412403:	74 0e                	je     412413 <_ZNSt6vectorI13TopologyEntrySaIS0_EE18_M_fill_initializeEmRKS0_+0x23>
  412405:	4c 8b 02             	mov    (%rdx),%r8
  412408:	4c 89 00             	mov    %r8,(%rax)
  41240b:	44 8b 42 08          	mov    0x8(%rdx),%r8d
  41240f:	44 89 40 08          	mov    %r8d,0x8(%rax)
  412413:	48 83 c0 0c          	add    $0xc,%rax
  412417:	48 83 e9 01          	sub    $0x1,%rcx
  41241b:	75 e3                	jne    412400 <_ZNSt6vectorI13TopologyEntrySaIS0_EE18_M_fill_initializeEmRKS0_+0x10>
  41241d:	48 8d 04 76          	lea    (%rsi,%rsi,2),%rax
  412421:	4d 8d 0c 81          	lea    (%r9,%rax,4),%r9
  412425:	4c 89 4f 08          	mov    %r9,0x8(%rdi)
  412429:	c3                   	retq   
  41242a:	66 0f 1f 44 00 00    	nopw   0x0(%rax,%rax,1)

0000000000412430 <_ZNSt6vectorI13TopologyEntrySaIS0_EE21_M_default_initializeEm>:
  412430:	48 85 f6             	test   %rsi,%rsi
  412433:	48 8b 0f             	mov    (%rdi),%rcx
  412436:	74 33                	je     41246b <_ZNSt6vectorI13TopologyEntrySaIS0_EE21_M_default_initializeEm+0x3b>
  412438:	48 89 c8             	mov    %rcx,%rax
  41243b:	48 89 f2             	mov    %rsi,%rdx
  41243e:	66 90                	xchg   %ax,%ax
  412440:	48 85 c0             	test   %rax,%rax
  412443:	74 14                	je     412459 <_ZNSt6vectorI13TopologyEntrySaIS0_EE21_M_default_initializeEm+0x29>
  412445:	c7 00 ff ff ff ff    	movl   $0xffffffff,(%rax)
  41244b:	c7 40 04 ff ff ff ff 	movl   $0xffffffff,0x4(%rax)
  412452:	c7 40 08 ff ff ff ff 	movl   $0xffffffff,0x8(%rax)
  412459:	48 83 c0 0c          	add    $0xc,%rax
  41245d:	48 83 ea 01          	sub    $0x1,%rdx
  412461:	75 dd                	jne    412440 <_ZNSt6vectorI13TopologyEntrySaIS0_EE21_M_default_initializeEm+0x10>
  412463:	48 8d 04 76          	lea    (%rsi,%rsi,2),%rax
  412467:	48 8d 0c 81          	lea    (%rcx,%rax,4),%rcx
  41246b:	48 89 4f 08          	mov    %rcx,0x8(%rdi)
  41246f:	c3                   	retq   

0000000000412470 <_ZNSt6vectorI13TopologyEntrySaIS0_EE14_M_fill_assignEmRKS0_>:
  412470:	55                   	push   %rbp
  412471:	53                   	push   %rbx
  412472:	48 89 fb             	mov    %rdi,%rbx
  412475:	49 b9 ab aa aa aa aa 	movabs $0xaaaaaaaaaaaaaaab,%r9
  41247c:	aa aa aa 
  41247f:	48 83 ec 18          	sub    $0x18,%rsp
  412483:	48 8b 3f             	mov    (%rdi),%rdi
  412486:	48 8b 43 10          	mov    0x10(%rbx),%rax
  41248a:	48 29 f8             	sub    %rdi,%rax
  41248d:	48 c1 f8 02          	sar    $0x2,%rax
  412491:	49 0f af c1          	imul   %r9,%rax
  412495:	48 39 c6             	cmp    %rax,%rsi
  412498:	0f 87 b2 00 00 00    	ja     412550 <_ZNSt6vectorI13TopologyEntrySaIS0_EE14_M_fill_assignEmRKS0_+0xe0>
  41249e:	4c 8b 43 08          	mov    0x8(%rbx),%r8
  4124a2:	4c 89 c1             	mov    %r8,%rcx
  4124a5:	48 29 f9             	sub    %rdi,%rcx
  4124a8:	48 c1 f9 02          	sar    $0x2,%rcx
  4124ac:	49 0f af c9          	imul   %r9,%rcx
  4124b0:	48 39 ce             	cmp    %rcx,%rsi
  4124b3:	77 3b                	ja     4124f0 <_ZNSt6vectorI13TopologyEntrySaIS0_EE14_M_fill_assignEmRKS0_+0x80>
  4124b5:	48 85 f6             	test   %rsi,%rsi
  4124b8:	74 27                	je     4124e1 <_ZNSt6vectorI13TopologyEntrySaIS0_EE14_M_fill_assignEmRKS0_+0x71>
  4124ba:	48 89 f8             	mov    %rdi,%rax
  4124bd:	48 89 f1             	mov    %rsi,%rcx
  4124c0:	4c 8b 02             	mov    (%rdx),%r8
  4124c3:	48 83 c0 0c          	add    $0xc,%rax
  4124c7:	4c 89 40 f4          	mov    %r8,-0xc(%rax)
  4124cb:	44 8b 42 08          	mov    0x8(%rdx),%r8d
  4124cf:	44 89 40 fc          	mov    %r8d,-0x4(%rax)
  4124d3:	48 83 e9 01          	sub    $0x1,%rcx
  4124d7:	75 e7                	jne    4124c0 <_ZNSt6vectorI13TopologyEntrySaIS0_EE14_M_fill_assignEmRKS0_+0x50>
  4124d9:	48 8d 04 76          	lea    (%rsi,%rsi,2),%rax
  4124dd:	48 8d 3c 87          	lea    (%rdi,%rax,4),%rdi
  4124e1:	48 89 7b 08          	mov    %rdi,0x8(%rbx)
  4124e5:	48 83 c4 18          	add    $0x18,%rsp
  4124e9:	5b                   	pop    %rbx
  4124ea:	5d                   	pop    %rbp
  4124eb:	c3                   	retq   
  4124ec:	0f 1f 40 00          	nopl   0x0(%rax)
  4124f0:	4c 39 c7             	cmp    %r8,%rdi
  4124f3:	74 19                	je     41250e <_ZNSt6vectorI13TopologyEntrySaIS0_EE14_M_fill_assignEmRKS0_+0x9e>
  4124f5:	0f 1f 00             	nopl   (%rax)
  4124f8:	48 8b 02             	mov    (%rdx),%rax
  4124fb:	48 83 c7 0c          	add    $0xc,%rdi
  4124ff:	48 89 47 f4          	mov    %rax,-0xc(%rdi)
  412503:	8b 42 08             	mov    0x8(%rdx),%eax
  412506:	89 47 fc             	mov    %eax,-0x4(%rdi)
  412509:	49 39 f8             	cmp    %rdi,%r8
  41250c:	75 ea                	jne    4124f8 <_ZNSt6vectorI13TopologyEntrySaIS0_EE14_M_fill_assignEmRKS0_+0x88>
  41250e:	48 29 ce             	sub    %rcx,%rsi
  412511:	4c 89 c0             	mov    %r8,%rax
  412514:	48 89 f1             	mov    %rsi,%rcx
  412517:	66 0f 1f 84 00 00 00 	nopw   0x0(%rax,%rax,1)
  41251e:	00 00 
  412520:	48 85 c0             	test   %rax,%rax
  412523:	74 0c                	je     412531 <_ZNSt6vectorI13TopologyEntrySaIS0_EE14_M_fill_assignEmRKS0_+0xc1>
  412525:	48 8b 3a             	mov    (%rdx),%rdi
  412528:	48 89 38             	mov    %rdi,(%rax)
  41252b:	8b 7a 08             	mov    0x8(%rdx),%edi
  41252e:	89 78 08             	mov    %edi,0x8(%rax)
  412531:	48 83 c0 0c          	add    $0xc,%rax
  412535:	48 83 e9 01          	sub    $0x1,%rcx
  412539:	75 e5                	jne    412520 <_ZNSt6vectorI13TopologyEntrySaIS0_EE14_M_fill_assignEmRKS0_+0xb0>
  41253b:	48 8d 04 76          	lea    (%rsi,%rsi,2),%rax
  41253f:	49 8d 04 80          	lea    (%r8,%rax,4),%rax
  412543:	48 89 43 08          	mov    %rax,0x8(%rbx)
  412547:	48 83 c4 18          	add    $0x18,%rsp
  41254b:	5b                   	pop    %rbx
  41254c:	5d                   	pop    %rbp
  41254d:	c3                   	retq   
  41254e:	66 90                	xchg   %ax,%ax
  412550:	48 85 f6             	test   %rsi,%rsi
  412553:	0f 84 7e 00 00 00    	je     4125d7 <_ZNSt6vectorI13TopologyEntrySaIS0_EE14_M_fill_assignEmRKS0_+0x167>
  412559:	48 b8 55 55 55 55 55 	movabs $0x1555555555555555,%rax
  412560:	55 55 15 
  412563:	48 39 c6             	cmp    %rax,%rsi
  412566:	77 76                	ja     4125de <_ZNSt6vectorI13TopologyEntrySaIS0_EE14_M_fill_assignEmRKS0_+0x16e>
  412568:	4c 8d 0c 76          	lea    (%rsi,%rsi,2),%r9
  41256c:	48 89 54 24 08       	mov    %rdx,0x8(%rsp)
  412571:	48 89 34 24          	mov    %rsi,(%rsp)
  412575:	4a 8d 2c 8d 00 00 00 	lea    0x0(,%r9,4),%rbp
  41257c:	00 
  41257d:	48 89 ef             	mov    %rbp,%rdi
  412580:	e8 fb e0 ff ff       	callq  410680 <_Znwm@plt>
  412585:	48 8b 54 24 08       	mov    0x8(%rsp),%rdx
  41258a:	48 8b 34 24          	mov    (%rsp),%rsi
  41258e:	4c 8d 0c 28          	lea    (%rax,%rbp,1),%r9
  412592:	48 89 c1             	mov    %rax,%rcx
  412595:	0f 1f 00             	nopl   (%rax)
  412598:	48 85 c9             	test   %rcx,%rcx
  41259b:	74 0e                	je     4125ab <_ZNSt6vectorI13TopologyEntrySaIS0_EE14_M_fill_assignEmRKS0_+0x13b>
  41259d:	4c 8b 02             	mov    (%rdx),%r8
  4125a0:	4c 89 01             	mov    %r8,(%rcx)
  4125a3:	44 8b 42 08          	mov    0x8(%rdx),%r8d
  4125a7:	44 89 41 08          	mov    %r8d,0x8(%rcx)
  4125ab:	48 83 c1 0c          	add    $0xc,%rcx
  4125af:	48 83 ee 01          	sub    $0x1,%rsi
  4125b3:	75 e3                	jne    412598 <_ZNSt6vectorI13TopologyEntrySaIS0_EE14_M_fill_assignEmRKS0_+0x128>
  4125b5:	48 8b 3b             	mov    (%rbx),%rdi
  4125b8:	48 85 ff             	test   %rdi,%rdi
  4125bb:	48 89 03             	mov    %rax,(%rbx)
  4125be:	4c 89 4b 08          	mov    %r9,0x8(%rbx)
  4125c2:	4c 89 4b 10          	mov    %r9,0x10(%rbx)
  4125c6:	0f 84 7b ff ff ff    	je     412547 <_ZNSt6vectorI13TopologyEntrySaIS0_EE14_M_fill_assignEmRKS0_+0xd7>
  4125cc:	48 83 c4 18          	add    $0x18,%rsp
  4125d0:	5b                   	pop    %rbx
  4125d1:	5d                   	pop    %rbp
  4125d2:	e9 79 e0 ff ff       	jmpq   410650 <_ZdlPv@plt>
  4125d7:	31 c0                	xor    %eax,%eax
  4125d9:	45 31 c9             	xor    %r9d,%r9d
  4125dc:	eb da                	jmp    4125b8 <_ZNSt6vectorI13TopologyEntrySaIS0_EE14_M_fill_assignEmRKS0_+0x148>
  4125de:	e8 9d de ff ff       	callq  410480 <_ZSt17__throw_bad_allocv@plt>
  4125e3:	66 2e 0f 1f 84 00 00 	nopw   %cs:0x0(%rax,%rax,1)
  4125ea:	00 00 00 
  4125ed:	0f 1f 00             	nopl   (%rax)

00000000004125f0 <_ZNSt6vectorI13TopologyEntrySaIS0_EE6assignEmRKS0_>:
  4125f0:	e9 7b fe ff ff       	jmpq   412470 <_ZNSt6vectorI13TopologyEntrySaIS0_EE14_M_fill_assignEmRKS0_>
  4125f5:	66 2e 0f 1f 84 00 00 	nopw   %cs:0x0(%rax,%rax,1)
  4125fc:	00 00 00 
  4125ff:	90                   	nop

0000000000412600 <_ZNSt6vectorI13TopologyEntrySaIS0_EE14_M_fill_insertEN9__gnu_cxx17__normal_iteratorIPS0_S2_EEmRKS0_>:
  412600:	48 85 d2             	test   %rdx,%rdx
  412603:	0f 84 19 01 00 00    	je     412722 <_ZNSt6vectorI13TopologyEntrySaIS0_EE14_M_fill_insertEN9__gnu_cxx17__normal_iteratorIPS0_S2_EEmRKS0_+0x122>
  412609:	41 57                	push   %r15
  41260b:	41 56                	push   %r14
  41260d:	41 55                	push   %r13
  41260f:	41 54                	push   %r12
  412611:	55                   	push   %rbp
  412612:	53                   	push   %rbx
  412613:	48 bb ab aa aa aa aa 	movabs $0xaaaaaaaaaaaaaaab,%rbx
  41261a:	aa aa aa 
  41261d:	48 83 ec 18          	sub    $0x18,%rsp
  412621:	4c 8b 47 08          	mov    0x8(%rdi),%r8
  412625:	48 8b 47 10          	mov    0x10(%rdi),%rax
  412629:	4c 29 c0             	sub    %r8,%rax
  41262c:	48 c1 f8 02          	sar    $0x2,%rax
  412630:	48 0f af c3          	imul   %rbx,%rax
  412634:	48 39 c2             	cmp    %rax,%rdx
  412637:	0f 87 93 01 00 00    	ja     4127d0 <_ZNSt6vectorI13TopologyEntrySaIS0_EE14_M_fill_insertEN9__gnu_cxx17__normal_iteratorIPS0_S2_EEmRKS0_+0x1d0>
  41263d:	4d 89 c4             	mov    %r8,%r12
  412640:	44 8b 19             	mov    (%rcx),%r11d
  412643:	44 8b 51 04          	mov    0x4(%rcx),%r10d
  412647:	49 29 f4             	sub    %rsi,%r12
  41264a:	44 8b 49 08          	mov    0x8(%rcx),%r9d
  41264e:	4c 89 e0             	mov    %r12,%rax
  412651:	48 c1 f8 02          	sar    $0x2,%rax
  412655:	48 0f af d8          	imul   %rax,%rbx
  412659:	48 39 da             	cmp    %rbx,%rdx
  41265c:	0f 83 c6 00 00 00    	jae    412728 <_ZNSt6vectorI13TopologyEntrySaIS0_EE14_M_fill_insertEN9__gnu_cxx17__normal_iteratorIPS0_S2_EEmRKS0_+0x128>
  412662:	48 8d 1c 52          	lea    (%rdx,%rdx,2),%rbx
  412666:	4c 89 c1             	mov    %r8,%rcx
  412669:	4c 89 c2             	mov    %r8,%rdx
  41266c:	48 c1 e3 02          	shl    $0x2,%rbx
  412670:	48 29 d9             	sub    %rbx,%rcx
  412673:	49 39 c8             	cmp    %rcx,%r8
  412676:	48 89 c8             	mov    %rcx,%rax
  412679:	74 23                	je     41269e <_ZNSt6vectorI13TopologyEntrySaIS0_EE14_M_fill_insertEN9__gnu_cxx17__normal_iteratorIPS0_S2_EEmRKS0_+0x9e>
  41267b:	0f 1f 44 00 00       	nopl   0x0(%rax,%rax,1)
  412680:	48 85 d2             	test   %rdx,%rdx
  412683:	74 0c                	je     412691 <_ZNSt6vectorI13TopologyEntrySaIS0_EE14_M_fill_insertEN9__gnu_cxx17__normal_iteratorIPS0_S2_EEmRKS0_+0x91>
  412685:	48 8b 28             	mov    (%rax),%rbp
  412688:	48 89 2a             	mov    %rbp,(%rdx)
  41268b:	8b 68 08             	mov    0x8(%rax),%ebp
  41268e:	89 6a 08             	mov    %ebp,0x8(%rdx)
  412691:	48 83 c0 0c          	add    $0xc,%rax
  412695:	48 83 c2 0c          	add    $0xc,%rdx
  412699:	49 39 c0             	cmp    %rax,%r8
  41269c:	75 e2                	jne    412680 <_ZNSt6vectorI13TopologyEntrySaIS0_EE14_M_fill_insertEN9__gnu_cxx17__normal_iteratorIPS0_S2_EEmRKS0_+0x80>
  41269e:	49 8d 04 18          	lea    (%r8,%rbx,1),%rax
  4126a2:	48 89 ca             	mov    %rcx,%rdx
  4126a5:	48 29 f2             	sub    %rsi,%rdx
  4126a8:	48 c1 fa 02          	sar    $0x2,%rdx
  4126ac:	48 89 47 08          	mov    %rax,0x8(%rdi)
  4126b0:	48 b8 ab aa aa aa aa 	movabs $0xaaaaaaaaaaaaaaab,%rax
  4126b7:	aa aa aa 
  4126ba:	48 0f af d0          	imul   %rax,%rdx
  4126be:	48 85 d2             	test   %rdx,%rdx
  4126c1:	7e 31                	jle    4126f4 <_ZNSt6vectorI13TopologyEntrySaIS0_EE14_M_fill_insertEN9__gnu_cxx17__normal_iteratorIPS0_S2_EEmRKS0_+0xf4>
  4126c3:	48 8d 04 95 00 00 00 	lea    0x0(,%rdx,4),%rax
  4126ca:	00 
  4126cb:	48 29 c2             	sub    %rax,%rdx
  4126ce:	31 c0                	xor    %eax,%eax
  4126d0:	48 c1 e2 02          	shl    $0x2,%rdx
  4126d4:	0f 1f 40 00          	nopl   0x0(%rax)
  4126d8:	48 8b 7c 01 f4       	mov    -0xc(%rcx,%rax,1),%rdi
  4126dd:	49 89 7c 00 f4       	mov    %rdi,-0xc(%r8,%rax,1)
  4126e2:	8b 7c 01 fc          	mov    -0x4(%rcx,%rax,1),%edi
  4126e6:	41 89 7c 00 fc       	mov    %edi,-0x4(%r8,%rax,1)
  4126eb:	48 83 e8 0c          	sub    $0xc,%rax
  4126ef:	48 39 c2             	cmp    %rax,%rdx
  4126f2:	75 e4                	jne    4126d8 <_ZNSt6vectorI13TopologyEntrySaIS0_EE14_M_fill_insertEN9__gnu_cxx17__normal_iteratorIPS0_S2_EEmRKS0_+0xd8>
  4126f4:	48 01 f3             	add    %rsi,%rbx
  4126f7:	48 39 f3             	cmp    %rsi,%rbx
  4126fa:	74 18                	je     412714 <_ZNSt6vectorI13TopologyEntrySaIS0_EE14_M_fill_insertEN9__gnu_cxx17__normal_iteratorIPS0_S2_EEmRKS0_+0x114>
  4126fc:	0f 1f 40 00          	nopl   0x0(%rax)
  412700:	44 89 1e             	mov    %r11d,(%rsi)
  412703:	44 89 56 04          	mov    %r10d,0x4(%rsi)
  412707:	48 83 c6 0c          	add    $0xc,%rsi
  41270b:	44 89 4e fc          	mov    %r9d,-0x4(%rsi)
  41270f:	48 39 f3             	cmp    %rsi,%rbx
  412712:	75 ec                	jne    412700 <_ZNSt6vectorI13TopologyEntrySaIS0_EE14_M_fill_insertEN9__gnu_cxx17__normal_iteratorIPS0_S2_EEmRKS0_+0x100>
  412714:	48 83 c4 18          	add    $0x18,%rsp
  412718:	5b                   	pop    %rbx
  412719:	5d                   	pop    %rbp
  41271a:	41 5c                	pop    %r12
  41271c:	41 5d                	pop    %r13
  41271e:	41 5e                	pop    %r14
  412720:	41 5f                	pop    %r15
  412722:	f3 c3                	repz retq 
  412724:	0f 1f 40 00          	nopl   0x0(%rax)
  412728:	48 29 da             	sub    %rbx,%rdx
  41272b:	0f 84 18 02 00 00    	je     412949 <_ZNSt6vectorI13TopologyEntrySaIS0_EE14_M_fill_insertEN9__gnu_cxx17__normal_iteratorIPS0_S2_EEmRKS0_+0x349>
  412731:	4c 89 c0             	mov    %r8,%rax
  412734:	48 89 d1             	mov    %rdx,%rcx
  412737:	66 0f 1f 84 00 00 00 	nopw   0x0(%rax,%rax,1)
  41273e:	00 00 
  412740:	48 85 c0             	test   %rax,%rax
  412743:	74 0b                	je     412750 <_ZNSt6vectorI13TopologyEntrySaIS0_EE14_M_fill_insertEN9__gnu_cxx17__normal_iteratorIPS0_S2_EEmRKS0_+0x150>
  412745:	44 89 18             	mov    %r11d,(%rax)
  412748:	44 89 50 04          	mov    %r10d,0x4(%rax)
  41274c:	44 89 48 08          	mov    %r9d,0x8(%rax)
  412750:	48 83 c0 0c          	add    $0xc,%rax
  412754:	48 83 e9 01          	sub    $0x1,%rcx
  412758:	75 e6                	jne    412740 <_ZNSt6vectorI13TopologyEntrySaIS0_EE14_M_fill_insertEN9__gnu_cxx17__normal_iteratorIPS0_S2_EEmRKS0_+0x140>
  41275a:	48 8d 04 52          	lea    (%rdx,%rdx,2),%rax
  41275e:	49 8d 1c 80          	lea    (%r8,%rax,4),%rbx
  412762:	49 39 f0             	cmp    %rsi,%r8
  412765:	48 89 5f 08          	mov    %rbx,0x8(%rdi)
  412769:	0f 84 f1 01 00 00    	je     412960 <_ZNSt6vectorI13TopologyEntrySaIS0_EE14_M_fill_insertEN9__gnu_cxx17__normal_iteratorIPS0_S2_EEmRKS0_+0x360>
  41276f:	48 89 da             	mov    %rbx,%rdx
  412772:	48 89 f0             	mov    %rsi,%rax
  412775:	0f 1f 00             	nopl   (%rax)
  412778:	48 85 d2             	test   %rdx,%rdx
  41277b:	74 0c                	je     412789 <_ZNSt6vectorI13TopologyEntrySaIS0_EE14_M_fill_insertEN9__gnu_cxx17__normal_iteratorIPS0_S2_EEmRKS0_+0x189>
  41277d:	48 8b 08             	mov    (%rax),%rcx
  412780:	48 89 0a             	mov    %rcx,(%rdx)
  412783:	8b 48 08             	mov    0x8(%rax),%ecx
  412786:	89 4a 08             	mov    %ecx,0x8(%rdx)
  412789:	48 83 c0 0c          	add    $0xc,%rax
  41278d:	48 83 c2 0c          	add    $0xc,%rdx
  412791:	49 39 c0             	cmp    %rax,%r8
  412794:	75 e2                	jne    412778 <_ZNSt6vectorI13TopologyEntrySaIS0_EE14_M_fill_insertEN9__gnu_cxx17__normal_iteratorIPS0_S2_EEmRKS0_+0x178>
  412796:	49 01 dc             	add    %rbx,%r12
  412799:	4c 89 67 08          	mov    %r12,0x8(%rdi)
  41279d:	0f 1f 00             	nopl   (%rax)
  4127a0:	44 89 1e             	mov    %r11d,(%rsi)
  4127a3:	44 89 56 04          	mov    %r10d,0x4(%rsi)
  4127a7:	48 83 c6 0c          	add    $0xc,%rsi
  4127ab:	44 89 4e fc          	mov    %r9d,-0x4(%rsi)
  4127af:	48 39 c6             	cmp    %rax,%rsi
  4127b2:	75 ec                	jne    4127a0 <_ZNSt6vectorI13TopologyEntrySaIS0_EE14_M_fill_insertEN9__gnu_cxx17__normal_iteratorIPS0_S2_EEmRKS0_+0x1a0>
  4127b4:	48 83 c4 18          	add    $0x18,%rsp
  4127b8:	5b                   	pop    %rbx
  4127b9:	5d                   	pop    %rbp
  4127ba:	41 5c                	pop    %r12
  4127bc:	41 5d                	pop    %r13
  4127be:	41 5e                	pop    %r14
  4127c0:	41 5f                	pop    %r15
  4127c2:	e9 5b ff ff ff       	jmpq   412722 <_ZNSt6vectorI13TopologyEntrySaIS0_EE14_M_fill_insertEN9__gnu_cxx17__normal_iteratorIPS0_S2_EEmRKS0_+0x122>
  4127c7:	66 0f 1f 84 00 00 00 	nopw   0x0(%rax,%rax,1)
  4127ce:	00 00 
  4127d0:	49 89 fc             	mov    %rdi,%r12
  4127d3:	48 8b 3f             	mov    (%rdi),%rdi
  4127d6:	4c 89 c0             	mov    %r8,%rax
  4127d9:	48 89 d5             	mov    %rdx,%rbp
  4127dc:	48 ba 55 55 55 55 55 	movabs $0x1555555555555555,%rdx
  4127e3:	55 55 15 
  4127e6:	49 89 cf             	mov    %rcx,%r15
  4127e9:	48 29 f8             	sub    %rdi,%rax
  4127ec:	48 c1 f8 02          	sar    $0x2,%rax
  4127f0:	48 0f af d8          	imul   %rax,%rbx
  4127f4:	48 89 d0             	mov    %rdx,%rax
  4127f7:	48 29 d8             	sub    %rbx,%rax
  4127fa:	48 39 c5             	cmp    %rax,%rbp
  4127fd:	0f 87 71 01 00 00    	ja     412974 <_ZNSt6vectorI13TopologyEntrySaIS0_EE14_M_fill_insertEN9__gnu_cxx17__normal_iteratorIPS0_S2_EEmRKS0_+0x374>
  412803:	48 39 dd             	cmp    %rbx,%rbp
  412806:	48 89 d8             	mov    %rbx,%rax
  412809:	48 0f 43 c5          	cmovae %rbp,%rax
  41280d:	48 01 d8             	add    %rbx,%rax
  412810:	72 1e                	jb     412830 <_ZNSt6vectorI13TopologyEntrySaIS0_EE14_M_fill_insertEN9__gnu_cxx17__normal_iteratorIPS0_S2_EEmRKS0_+0x230>
  412812:	48 39 d0             	cmp    %rdx,%rax
  412815:	77 19                	ja     412830 <_ZNSt6vectorI13TopologyEntrySaIS0_EE14_M_fill_insertEN9__gnu_cxx17__normal_iteratorIPS0_S2_EEmRKS0_+0x230>
  412817:	48 89 f3             	mov    %rsi,%rbx
  41281a:	48 29 fb             	sub    %rdi,%rbx
  41281d:	48 85 c0             	test   %rax,%rax
  412820:	0f 85 2b 01 00 00    	jne    412951 <_ZNSt6vectorI13TopologyEntrySaIS0_EE14_M_fill_insertEN9__gnu_cxx17__normal_iteratorIPS0_S2_EEmRKS0_+0x351>
  412826:	45 31 f6             	xor    %r14d,%r14d
  412829:	45 31 ed             	xor    %r13d,%r13d
  41282c:	eb 30                	jmp    41285e <_ZNSt6vectorI13TopologyEntrySaIS0_EE14_M_fill_insertEN9__gnu_cxx17__normal_iteratorIPS0_S2_EEmRKS0_+0x25e>
  41282e:	66 90                	xchg   %ax,%ax
  412830:	48 89 f3             	mov    %rsi,%rbx
  412833:	49 c7 c6 fc ff ff ff 	mov    $0xfffffffffffffffc,%r14
  41283a:	48 29 fb             	sub    %rdi,%rbx
  41283d:	4c 89 f7             	mov    %r14,%rdi
  412840:	48 89 74 24 08       	mov    %rsi,0x8(%rsp)
  412845:	e8 36 de ff ff       	callq  410680 <_Znwm@plt>
  41284a:	49 8b 3c 24          	mov    (%r12),%rdi
  41284e:	4d 8b 44 24 08       	mov    0x8(%r12),%r8
  412853:	49 89 c5             	mov    %rax,%r13
  412856:	48 8b 74 24 08       	mov    0x8(%rsp),%rsi
  41285b:	49 01 c6             	add    %rax,%r14
  41285e:	4d 8d 4c 1d 00       	lea    0x0(%r13,%rbx,1),%r9
  412863:	48 89 e8             	mov    %rbp,%rax
  412866:	66 2e 0f 1f 84 00 00 	nopw   %cs:0x0(%rax,%rax,1)
  41286d:	00 00 00 
  412870:	4d 85 c9             	test   %r9,%r9
  412873:	74 0e                	je     412883 <_ZNSt6vectorI13TopologyEntrySaIS0_EE14_M_fill_insertEN9__gnu_cxx17__normal_iteratorIPS0_S2_EEmRKS0_+0x283>
  412875:	49 8b 17             	mov    (%r15),%rdx
  412878:	49 89 11             	mov    %rdx,(%r9)
  41287b:	41 8b 57 08          	mov    0x8(%r15),%edx
  41287f:	41 89 51 08          	mov    %edx,0x8(%r9)
  412883:	49 83 c1 0c          	add    $0xc,%r9
  412887:	48 83 e8 01          	sub    $0x1,%rax
  41288b:	75 e3                	jne    412870 <_ZNSt6vectorI13TopologyEntrySaIS0_EE14_M_fill_insertEN9__gnu_cxx17__normal_iteratorIPS0_S2_EEmRKS0_+0x270>
  41288d:	48 39 fe             	cmp    %rdi,%rsi
  412890:	0f 84 d6 00 00 00    	je     41296c <_ZNSt6vectorI13TopologyEntrySaIS0_EE14_M_fill_insertEN9__gnu_cxx17__normal_iteratorIPS0_S2_EEmRKS0_+0x36c>
  412896:	4d 89 e9             	mov    %r13,%r9
  412899:	48 89 f9             	mov    %rdi,%rcx
  41289c:	0f 1f 40 00          	nopl   0x0(%rax)
  4128a0:	4d 85 c9             	test   %r9,%r9
  4128a3:	74 0d                	je     4128b2 <_ZNSt6vectorI13TopologyEntrySaIS0_EE14_M_fill_insertEN9__gnu_cxx17__normal_iteratorIPS0_S2_EEmRKS0_+0x2b2>
  4128a5:	48 8b 01             	mov    (%rcx),%rax
  4128a8:	49 89 01             	mov    %rax,(%r9)
  4128ab:	8b 41 08             	mov    0x8(%rcx),%eax
  4128ae:	41 89 41 08          	mov    %eax,0x8(%r9)
  4128b2:	48 83 c1 0c          	add    $0xc,%rcx
  4128b6:	49 83 c1 0c          	add    $0xc,%r9
  4128ba:	48 39 ce             	cmp    %rcx,%rsi
  4128bd:	75 e1                	jne    4128a0 <_ZNSt6vectorI13TopologyEntrySaIS0_EE14_M_fill_insertEN9__gnu_cxx17__normal_iteratorIPS0_S2_EEmRKS0_+0x2a0>
  4128bf:	48 8d 47 0c          	lea    0xc(%rdi),%rax
  4128c3:	48 89 f3             	mov    %rsi,%rbx
  4128c6:	48 29 c3             	sub    %rax,%rbx
  4128c9:	48 89 d8             	mov    %rbx,%rax
  4128cc:	48 c1 e8 02          	shr    $0x2,%rax
  4128d0:	49 8d 54 85 0c       	lea    0xc(%r13,%rax,4),%rdx
  4128d5:	48 8d 44 6d 00       	lea    0x0(%rbp,%rbp,2),%rax
  4128da:	4c 39 c6             	cmp    %r8,%rsi
  4128dd:	48 8d 1c 82          	lea    (%rdx,%rax,4),%rbx
  4128e1:	74 3b                	je     41291e <_ZNSt6vectorI13TopologyEntrySaIS0_EE14_M_fill_insertEN9__gnu_cxx17__normal_iteratorIPS0_S2_EEmRKS0_+0x31e>
  4128e3:	48 89 d9             	mov    %rbx,%rcx
  4128e6:	48 89 f2             	mov    %rsi,%rdx
  4128e9:	0f 1f 80 00 00 00 00 	nopl   0x0(%rax)
  4128f0:	48 85 c9             	test   %rcx,%rcx
  4128f3:	74 0c                	je     412901 <_ZNSt6vectorI13TopologyEntrySaIS0_EE14_M_fill_insertEN9__gnu_cxx17__normal_iteratorIPS0_S2_EEmRKS0_+0x301>
  4128f5:	48 8b 02             	mov    (%rdx),%rax
  4128f8:	48 89 01             	mov    %rax,(%rcx)
  4128fb:	8b 42 08             	mov    0x8(%rdx),%eax
  4128fe:	89 41 08             	mov    %eax,0x8(%rcx)
  412901:	48 83 c2 0c          	add    $0xc,%rdx
  412905:	48 83 c1 0c          	add    $0xc,%rcx
  412909:	4c 39 c2             	cmp    %r8,%rdx
  41290c:	75 e2                	jne    4128f0 <_ZNSt6vectorI13TopologyEntrySaIS0_EE14_M_fill_insertEN9__gnu_cxx17__normal_iteratorIPS0_S2_EEmRKS0_+0x2f0>
  41290e:	48 83 c6 0c          	add    $0xc,%rsi
  412912:	48 29 f2             	sub    %rsi,%rdx
  412915:	48 c1 ea 02          	shr    $0x2,%rdx
  412919:	48 8d 5c 93 0c       	lea    0xc(%rbx,%rdx,4),%rbx
  41291e:	48 85 ff             	test   %rdi,%rdi
  412921:	74 05                	je     412928 <_ZNSt6vectorI13TopologyEntrySaIS0_EE14_M_fill_insertEN9__gnu_cxx17__normal_iteratorIPS0_S2_EEmRKS0_+0x328>
  412923:	e8 28 dd ff ff       	callq  410650 <_ZdlPv@plt>
  412928:	4d 89 2c 24          	mov    %r13,(%r12)
  41292c:	49 89 5c 24 08       	mov    %rbx,0x8(%r12)
  412931:	4d 89 74 24 10       	mov    %r14,0x10(%r12)
  412936:	48 83 c4 18          	add    $0x18,%rsp
  41293a:	5b                   	pop    %rbx
  41293b:	5d                   	pop    %rbp
  41293c:	41 5c                	pop    %r12
  41293e:	41 5d                	pop    %r13
  412940:	41 5e                	pop    %r14
  412942:	41 5f                	pop    %r15
  412944:	e9 d9 fd ff ff       	jmpq   412722 <_ZNSt6vectorI13TopologyEntrySaIS0_EE14_M_fill_insertEN9__gnu_cxx17__normal_iteratorIPS0_S2_EEmRKS0_+0x122>
  412949:	4c 89 c3             	mov    %r8,%rbx
  41294c:	e9 11 fe ff ff       	jmpq   412762 <_ZNSt6vectorI13TopologyEntrySaIS0_EE14_M_fill_insertEN9__gnu_cxx17__normal_iteratorIPS0_S2_EEmRKS0_+0x162>
  412951:	4c 8d 34 40          	lea    (%rax,%rax,2),%r14
  412955:	49 c1 e6 02          	shl    $0x2,%r14
  412959:	e9 df fe ff ff       	jmpq   41283d <_ZNSt6vectorI13TopologyEntrySaIS0_EE14_M_fill_insertEN9__gnu_cxx17__normal_iteratorIPS0_S2_EEmRKS0_+0x23d>
  41295e:	66 90                	xchg   %ax,%ax
  412960:	4c 01 e3             	add    %r12,%rbx
  412963:	48 89 5f 08          	mov    %rbx,0x8(%rdi)
  412967:	e9 a8 fd ff ff       	jmpq   412714 <_ZNSt6vectorI13TopologyEntrySaIS0_EE14_M_fill_insertEN9__gnu_cxx17__normal_iteratorIPS0_S2_EEmRKS0_+0x114>
  41296c:	4c 89 ea             	mov    %r13,%rdx
  41296f:	e9 61 ff ff ff       	jmpq   4128d5 <_ZNSt6vectorI13TopologyEntrySaIS0_EE14_M_fill_insertEN9__gnu_cxx17__normal_iteratorIPS0_S2_EEmRKS0_+0x2d5>
  412974:	bf ca ca 42 00       	mov    $0x42caca,%edi
  412979:	e8 72 db ff ff       	callq  4104f0 <_ZSt20__throw_length_errorPKc@plt>
  41297e:	66 90                	xchg   %ax,%ax

0000000000412980 <_ZNSt6vectorI13TopologyEntrySaIS0_EE6insertEN9__gnu_cxx17__normal_iteratorIPKS0_S2_EEmRS5_>:
  412980:	55                   	push   %rbp
  412981:	53                   	push   %rbx
  412982:	48 89 f3             	mov    %rsi,%rbx
  412985:	48 89 fd             	mov    %rdi,%rbp
  412988:	48 83 ec 08          	sub    $0x8,%rsp
  41298c:	48 2b 1f             	sub    (%rdi),%rbx
  41298f:	e8 6c fc ff ff       	callq  412600 <_ZNSt6vectorI13TopologyEntrySaIS0_EE14_M_fill_insertEN9__gnu_cxx17__normal_iteratorIPS0_S2_EEmRKS0_>
  412994:	48 89 d8             	mov    %rbx,%rax
  412997:	48 03 45 00          	add    0x0(%rbp),%rax
  41299b:	48 83 c4 08          	add    $0x8,%rsp
  41299f:	5b                   	pop    %rbx
  4129a0:	5d                   	pop    %rbp
  4129a1:	c3                   	retq   
  4129a2:	66 2e 0f 1f 84 00 00 	nopw   %cs:0x0(%rax,%rax,1)
  4129a9:	00 00 00 
  4129ac:	0f 1f 40 00          	nopl   0x0(%rax)

00000000004129b0 <_ZNSt6vectorI13TopologyEntrySaIS0_EE6resizeEmRKS0_>:
  4129b0:	4c 8b 4f 08          	mov    0x8(%rdi),%r9
  4129b4:	4c 8b 07             	mov    (%rdi),%r8
  4129b7:	49 ba ab aa aa aa aa 	movabs $0xaaaaaaaaaaaaaaab,%r10
  4129be:	aa aa aa 
  4129c1:	4c 89 c8             	mov    %r9,%rax
  4129c4:	4c 29 c0             	sub    %r8,%rax
  4129c7:	48 c1 f8 02          	sar    $0x2,%rax
  4129cb:	49 0f af c2          	imul   %r10,%rax
  4129cf:	48 39 c6             	cmp    %rax,%rsi
  4129d2:	77 14                	ja     4129e8 <_ZNSt6vectorI13TopologyEntrySaIS0_EE6resizeEmRKS0_+0x38>
  4129d4:	73 2b                	jae    412a01 <_ZNSt6vectorI13TopologyEntrySaIS0_EE6resizeEmRKS0_+0x51>
  4129d6:	48 8d 04 76          	lea    (%rsi,%rsi,2),%rax
  4129da:	49 8d 04 80          	lea    (%r8,%rax,4),%rax
  4129de:	48 89 47 08          	mov    %rax,0x8(%rdi)
  4129e2:	c3                   	retq   
  4129e3:	0f 1f 44 00 00       	nopl   0x0(%rax,%rax,1)
  4129e8:	48 89 d1             	mov    %rdx,%rcx
  4129eb:	48 89 f2             	mov    %rsi,%rdx
  4129ee:	48 83 ec 08          	sub    $0x8,%rsp
  4129f2:	48 29 c2             	sub    %rax,%rdx
  4129f5:	4c 89 ce             	mov    %r9,%rsi
  4129f8:	e8 03 fc ff ff       	callq  412600 <_ZNSt6vectorI13TopologyEntrySaIS0_EE14_M_fill_insertEN9__gnu_cxx17__normal_iteratorIPS0_S2_EEmRKS0_>
  4129fd:	48 83 c4 08          	add    $0x8,%rsp
  412a01:	f3 c3                	repz retq 
  412a03:	66 2e 0f 1f 84 00 00 	nopw   %cs:0x0(%rax,%rax,1)
  412a0a:	00 00 00 
  412a0d:	0f 1f 00             	nopl   (%rax)

0000000000412a10 <_ZNSt6vectorI13TopologyEntrySaIS0_EE17_M_default_appendEm>:
  412a10:	48 85 f6             	test   %rsi,%rsi
  412a13:	0f 84 1a 01 00 00    	je     412b33 <_ZNSt6vectorI13TopologyEntrySaIS0_EE17_M_default_appendEm+0x123>
  412a19:	4c 8b 47 08          	mov    0x8(%rdi),%r8
  412a1d:	48 8b 47 10          	mov    0x10(%rdi),%rax
  412a21:	48 ba ab aa aa aa aa 	movabs $0xaaaaaaaaaaaaaaab,%rdx
  412a28:	aa aa aa 
  412a2b:	4c 29 c0             	sub    %r8,%rax
  412a2e:	48 c1 f8 02          	sar    $0x2,%rax
  412a32:	48 0f af c2          	imul   %rdx,%rax
  412a36:	48 39 c6             	cmp    %rax,%rsi
  412a39:	0f 87 f9 00 00 00    	ja     412b38 <_ZNSt6vectorI13TopologyEntrySaIS0_EE17_M_default_appendEm+0x128>
  412a3f:	48 89 f2             	mov    %rsi,%rdx
  412a42:	4c 89 c0             	mov    %r8,%rax
  412a45:	0f 1f 00             	nopl   (%rax)
  412a48:	48 85 c0             	test   %rax,%rax
  412a4b:	74 14                	je     412a61 <_ZNSt6vectorI13TopologyEntrySaIS0_EE17_M_default_appendEm+0x51>
  412a4d:	c7 00 ff ff ff ff    	movl   $0xffffffff,(%rax)
  412a53:	c7 40 04 ff ff ff ff 	movl   $0xffffffff,0x4(%rax)
  412a5a:	c7 40 08 ff ff ff ff 	movl   $0xffffffff,0x8(%rax)
  412a61:	48 83 c0 0c          	add    $0xc,%rax
  412a65:	48 83 ea 01          	sub    $0x1,%rdx
  412a69:	75 dd                	jne    412a48 <_ZNSt6vectorI13TopologyEntrySaIS0_EE17_M_default_appendEm+0x38>
  412a6b:	48 8d 04 76          	lea    (%rsi,%rsi,2),%rax
  412a6f:	49 8d 04 80          	lea    (%r8,%rax,4),%rax
  412a73:	48 89 47 08          	mov    %rax,0x8(%rdi)
  412a77:	c3                   	retq   
  412a78:	0f 1f 84 00 00 00 00 	nopl   0x0(%rax,%rax,1)
  412a7f:	00 
  412a80:	49 c7 c5 fc ff ff ff 	mov    $0xfffffffffffffffc,%r13
  412a87:	4c 89 ef             	mov    %r13,%rdi
  412a8a:	e8 f1 db ff ff       	callq  410680 <_Znwm@plt>
  412a8f:	4c 8b 45 08          	mov    0x8(%rbp),%r8
  412a93:	48 8b 7d 00          	mov    0x0(%rbp),%rdi
  412a97:	49 89 c4             	mov    %rax,%r12
  412a9a:	49 01 c5             	add    %rax,%r13
  412a9d:	49 39 f8             	cmp    %rdi,%r8
  412aa0:	0f 84 0a 01 00 00    	je     412bb0 <_ZNSt6vectorI13TopologyEntrySaIS0_EE17_M_default_appendEm+0x1a0>
  412aa6:	4c 89 e1             	mov    %r12,%rcx
  412aa9:	48 89 fa             	mov    %rdi,%rdx
  412aac:	0f 1f 40 00          	nopl   0x0(%rax)
  412ab0:	48 85 c9             	test   %rcx,%rcx
  412ab3:	74 0c                	je     412ac1 <_ZNSt6vectorI13TopologyEntrySaIS0_EE17_M_default_appendEm+0xb1>
  412ab5:	48 8b 32             	mov    (%rdx),%rsi
  412ab8:	48 89 31             	mov    %rsi,(%rcx)
  412abb:	8b 72 08             	mov    0x8(%rdx),%esi
  412abe:	89 71 08             	mov    %esi,0x8(%rcx)
  412ac1:	48 83 c2 0c          	add    $0xc,%rdx
  412ac5:	48 83 c1 0c          	add    $0xc,%rcx
  412ac9:	4c 39 c2             	cmp    %r8,%rdx
  412acc:	75 e2                	jne    412ab0 <_ZNSt6vectorI13TopologyEntrySaIS0_EE17_M_default_appendEm+0xa0>
  412ace:	48 8d 47 0c          	lea    0xc(%rdi),%rax
  412ad2:	48 29 c2             	sub    %rax,%rdx
  412ad5:	48 c1 ea 02          	shr    $0x2,%rdx
  412ad9:	49 8d 44 94 0c       	lea    0xc(%r12,%rdx,4),%rax
  412ade:	48 89 c2             	mov    %rax,%rdx
  412ae1:	48 89 d9             	mov    %rbx,%rcx
  412ae4:	0f 1f 40 00          	nopl   0x0(%rax)
  412ae8:	48 85 d2             	test   %rdx,%rdx
  412aeb:	74 14                	je     412b01 <_ZNSt6vectorI13TopologyEntrySaIS0_EE17_M_default_appendEm+0xf1>
  412aed:	c7 02 ff ff ff ff    	movl   $0xffffffff,(%rdx)
  412af3:	c7 42 04 ff ff ff ff 	movl   $0xffffffff,0x4(%rdx)
  412afa:	c7 42 08 ff ff ff ff 	movl   $0xffffffff,0x8(%rdx)
  412b01:	48 83 c2 0c          	add    $0xc,%rdx
  412b05:	48 83 e9 01          	sub    $0x1,%rcx
  412b09:	75 dd                	jne    412ae8 <_ZNSt6vectorI13TopologyEntrySaIS0_EE17_M_default_appendEm+0xd8>
  412b0b:	48 8d 14 5b          	lea    (%rbx,%rbx,2),%rdx
  412b0f:	48 85 ff             	test   %rdi,%rdi
  412b12:	48 8d 1c 90          	lea    (%rax,%rdx,4),%rbx
  412b16:	74 05                	je     412b1d <_ZNSt6vectorI13TopologyEntrySaIS0_EE17_M_default_appendEm+0x10d>
  412b18:	e8 33 db ff ff       	callq  410650 <_ZdlPv@plt>
  412b1d:	4c 89 65 00          	mov    %r12,0x0(%rbp)
  412b21:	48 89 5d 08          	mov    %rbx,0x8(%rbp)
  412b25:	4c 89 6d 10          	mov    %r13,0x10(%rbp)
  412b29:	48 83 c4 08          	add    $0x8,%rsp
  412b2d:	5b                   	pop    %rbx
  412b2e:	5d                   	pop    %rbp
  412b2f:	41 5c                	pop    %r12
  412b31:	41 5d                	pop    %r13
  412b33:	f3 c3                	repz retq 
  412b35:	0f 1f 00             	nopl   (%rax)
  412b38:	41 55                	push   %r13
  412b3a:	41 54                	push   %r12
  412b3c:	4c 89 c0             	mov    %r8,%rax
  412b3f:	55                   	push   %rbp
  412b40:	53                   	push   %rbx
  412b41:	48 89 fd             	mov    %rdi,%rbp
  412b44:	48 b9 55 55 55 55 55 	movabs $0x1555555555555555,%rcx
  412b4b:	55 55 15 
  412b4e:	48 89 f3             	mov    %rsi,%rbx
  412b51:	48 83 ec 08          	sub    $0x8,%rsp
  412b55:	48 8b 3f             	mov    (%rdi),%rdi
  412b58:	48 29 f8             	sub    %rdi,%rax
  412b5b:	48 c1 f8 02          	sar    $0x2,%rax
  412b5f:	48 0f af c2          	imul   %rdx,%rax
  412b63:	48 89 ca             	mov    %rcx,%rdx
  412b66:	48 29 c2             	sub    %rax,%rdx
  412b69:	48 39 d6             	cmp    %rdx,%rsi
  412b6c:	77 4a                	ja     412bb8 <_ZNSt6vectorI13TopologyEntrySaIS0_EE17_M_default_appendEm+0x1a8>
  412b6e:	48 39 c6             	cmp    %rax,%rsi
  412b71:	48 89 c2             	mov    %rax,%rdx
  412b74:	48 0f 43 d6          	cmovae %rsi,%rdx
  412b78:	48 01 d0             	add    %rdx,%rax
  412b7b:	0f 82 ff fe ff ff    	jb     412a80 <_ZNSt6vectorI13TopologyEntrySaIS0_EE17_M_default_appendEm+0x70>
  412b81:	48 39 c8             	cmp    %rcx,%rax
  412b84:	0f 87 f6 fe ff ff    	ja     412a80 <_ZNSt6vectorI13TopologyEntrySaIS0_EE17_M_default_appendEm+0x70>
  412b8a:	45 31 ed             	xor    %r13d,%r13d
  412b8d:	45 31 e4             	xor    %r12d,%r12d
  412b90:	48 85 c0             	test   %rax,%rax
  412b93:	0f 84 04 ff ff ff    	je     412a9d <_ZNSt6vectorI13TopologyEntrySaIS0_EE17_M_default_appendEm+0x8d>
  412b99:	4c 8d 2c 40          	lea    (%rax,%rax,2),%r13
  412b9d:	49 c1 e5 02          	shl    $0x2,%r13
  412ba1:	e9 e1 fe ff ff       	jmpq   412a87 <_ZNSt6vectorI13TopologyEntrySaIS0_EE17_M_default_appendEm+0x77>
  412ba6:	66 2e 0f 1f 84 00 00 	nopw   %cs:0x0(%rax,%rax,1)
  412bad:	00 00 00 
  412bb0:	4c 89 e0             	mov    %r12,%rax
  412bb3:	e9 26 ff ff ff       	jmpq   412ade <_ZNSt6vectorI13TopologyEntrySaIS0_EE17_M_default_appendEm+0xce>
  412bb8:	bf e1 ca 42 00       	mov    $0x42cae1,%edi
  412bbd:	e8 2e d9 ff ff       	callq  4104f0 <_ZSt20__throw_length_errorPKc@plt>
  412bc2:	66 2e 0f 1f 84 00 00 	nopw   %cs:0x0(%rax,%rax,1)
  412bc9:	00 00 00 
  412bcc:	0f 1f 40 00          	nopl   0x0(%rax)

0000000000412bd0 <_ZNSt6vectorI13TopologyEntrySaIS0_EE6resizeEm>:
  412bd0:	48 8b 17             	mov    (%rdi),%rdx
  412bd3:	48 8b 47 08          	mov    0x8(%rdi),%rax
  412bd7:	48 b9 ab aa aa aa aa 	movabs $0xaaaaaaaaaaaaaaab,%rcx
  412bde:	aa aa aa 
  412be1:	48 29 d0             	sub    %rdx,%rax
  412be4:	48 c1 f8 02          	sar    $0x2,%rax
  412be8:	48 0f af c1          	imul   %rcx,%rax
  412bec:	48 39 c6             	cmp    %rax,%rsi
  412bef:	77 17                	ja     412c08 <_ZNSt6vectorI13TopologyEntrySaIS0_EE6resizeEm+0x38>
  412bf1:	73 0c                	jae    412bff <_ZNSt6vectorI13TopologyEntrySaIS0_EE6resizeEm+0x2f>
  412bf3:	48 8d 04 76          	lea    (%rsi,%rsi,2),%rax
  412bf7:	48 8d 04 82          	lea    (%rdx,%rax,4),%rax
  412bfb:	48 89 47 08          	mov    %rax,0x8(%rdi)
  412bff:	f3 c3                	repz retq 
  412c01:	0f 1f 80 00 00 00 00 	nopl   0x0(%rax)
  412c08:	48 29 c6             	sub    %rax,%rsi
  412c0b:	e9 00 fe ff ff       	jmpq   412a10 <_ZNSt6vectorI13TopologyEntrySaIS0_EE17_M_default_appendEm>

0000000000412c10 <_ZNSt6vectorI13TopologyEntrySaIS0_EE16_M_shrink_to_fitEv>:
  412c10:	41 55                	push   %r13
  412c12:	41 54                	push   %r12
  412c14:	48 b8 ab aa aa aa aa 	movabs $0xaaaaaaaaaaaaaaab,%rax
  412c1b:	aa aa aa 
  412c1e:	55                   	push   %rbp
  412c1f:	53                   	push   %rbx
  412c20:	48 83 ec 08          	sub    $0x8,%rsp
  412c24:	48 8b 5f 08          	mov    0x8(%rdi),%rbx
  412c28:	4c 8b 27             	mov    (%rdi),%r12
  412c2b:	48 8b 57 10          	mov    0x10(%rdi),%rdx
  412c2f:	49 89 dd             	mov    %rbx,%r13
  412c32:	4d 29 e5             	sub    %r12,%r13
  412c35:	4c 29 e2             	sub    %r12,%rdx
  412c38:	4c 89 e9             	mov    %r13,%rcx
  412c3b:	48 c1 fa 02          	sar    $0x2,%rdx
  412c3f:	48 c1 f9 02          	sar    $0x2,%rcx
  412c43:	48 0f af c8          	imul   %rax,%rcx
  412c47:	48 0f af d0          	imul   %rax,%rdx
  412c4b:	31 c0                	xor    %eax,%eax
  412c4d:	48 39 d1             	cmp    %rdx,%rcx
  412c50:	0f 84 83 00 00 00    	je     412cd9 <_ZNSt6vectorI13TopologyEntrySaIS0_EE16_M_shrink_to_fitEv+0xc9>
  412c56:	31 c0                	xor    %eax,%eax
  412c58:	48 85 c9             	test   %rcx,%rcx
  412c5b:	48 89 fd             	mov    %rdi,%rbp
  412c5e:	4c 89 e7             	mov    %r12,%rdi
  412c61:	74 1b                	je     412c7e <_ZNSt6vectorI13TopologyEntrySaIS0_EE16_M_shrink_to_fitEv+0x6e>
  412c63:	48 b8 55 55 55 55 55 	movabs $0x1555555555555555,%rax
  412c6a:	55 55 15 
  412c6d:	48 39 c1             	cmp    %rax,%rcx
  412c70:	77 77                	ja     412ce9 <_ZNSt6vectorI13TopologyEntrySaIS0_EE16_M_shrink_to_fitEv+0xd9>
  412c72:	4c 89 ef             	mov    %r13,%rdi
  412c75:	e8 06 da ff ff       	callq  410680 <_Znwm@plt>
  412c7a:	48 8b 7d 00          	mov    0x0(%rbp),%rdi
  412c7e:	49 01 c5             	add    %rax,%r13
  412c81:	4c 39 e3             	cmp    %r12,%rbx
  412c84:	74 5e                	je     412ce4 <_ZNSt6vectorI13TopologyEntrySaIS0_EE16_M_shrink_to_fitEv+0xd4>
  412c86:	48 89 c1             	mov    %rax,%rcx
  412c89:	4c 89 e2             	mov    %r12,%rdx
  412c8c:	0f 1f 40 00          	nopl   0x0(%rax)
  412c90:	48 85 c9             	test   %rcx,%rcx
  412c93:	74 0c                	je     412ca1 <_ZNSt6vectorI13TopologyEntrySaIS0_EE16_M_shrink_to_fitEv+0x91>
  412c95:	48 8b 32             	mov    (%rdx),%rsi
  412c98:	48 89 31             	mov    %rsi,(%rcx)
  412c9b:	8b 72 08             	mov    0x8(%rdx),%esi
  412c9e:	89 71 08             	mov    %esi,0x8(%rcx)
  412ca1:	48 83 c2 0c          	add    $0xc,%rdx
  412ca5:	48 83 c1 0c          	add    $0xc,%rcx
  412ca9:	48 39 d3             	cmp    %rdx,%rbx
  412cac:	75 e2                	jne    412c90 <_ZNSt6vectorI13TopologyEntrySaIS0_EE16_M_shrink_to_fitEv+0x80>
  412cae:	49 83 c4 0c          	add    $0xc,%r12
  412cb2:	4c 29 e3             	sub    %r12,%rbx
  412cb5:	48 c1 eb 02          	shr    $0x2,%rbx
  412cb9:	48 8d 54 98 0c       	lea    0xc(%rax,%rbx,4),%rdx
  412cbe:	48 85 ff             	test   %rdi,%rdi
  412cc1:	48 89 45 00          	mov    %rax,0x0(%rbp)
  412cc5:	48 89 55 08          	mov    %rdx,0x8(%rbp)
  412cc9:	4c 89 6d 10          	mov    %r13,0x10(%rbp)
  412ccd:	74 05                	je     412cd4 <_ZNSt6vectorI13TopologyEntrySaIS0_EE16_M_shrink_to_fitEv+0xc4>
  412ccf:	e8 7c d9 ff ff       	callq  410650 <_ZdlPv@plt>
  412cd4:	b8 01 00 00 00       	mov    $0x1,%eax
  412cd9:	48 83 c4 08          	add    $0x8,%rsp
  412cdd:	5b                   	pop    %rbx
  412cde:	5d                   	pop    %rbp
  412cdf:	41 5c                	pop    %r12
  412ce1:	41 5d                	pop    %r13
  412ce3:	c3                   	retq   
  412ce4:	48 89 c2             	mov    %rax,%rdx
  412ce7:	eb d5                	jmp    412cbe <_ZNSt6vectorI13TopologyEntrySaIS0_EE16_M_shrink_to_fitEv+0xae>
  412ce9:	e8 92 d7 ff ff       	callq  410480 <_ZSt17__throw_bad_allocv@plt>
  412cee:	48 89 c7             	mov    %rax,%rdi
  412cf1:	e8 aa d7 ff ff       	callq  4104a0 <__cxa_begin_catch@plt>
  412cf6:	e8 a5 db ff ff       	callq  4108a0 <__cxa_end_catch@plt>
  412cfb:	31 c0                	xor    %eax,%eax
  412cfd:	eb da                	jmp    412cd9 <_ZNSt6vectorI13TopologyEntrySaIS0_EE16_M_shrink_to_fitEv+0xc9>
  412cff:	90                   	nop

0000000000412d00 <_ZNSt6vectorI13TopologyEntrySaIS0_EE13shrink_to_fitEv>:
  412d00:	e9 0b ff ff ff       	jmpq   412c10 <_ZNSt6vectorI13TopologyEntrySaIS0_EE16_M_shrink_to_fitEv>
  412d05:	66 2e 0f 1f 84 00 00 	nopw   %cs:0x0(%rax,%rax,1)
  412d0c:	00 00 00 
  412d0f:	90                   	nop

0000000000412d10 <_ZNKSt6vectorI13TopologyEntrySaIS0_EE12_M_check_lenEmPKc>:
  412d10:	48 8b 47 08          	mov    0x8(%rdi),%rax
  412d14:	48 2b 07             	sub    (%rdi),%rax
  412d17:	48 b9 ab aa aa aa aa 	movabs $0xaaaaaaaaaaaaaaab,%rcx
  412d1e:	aa aa aa 
  412d21:	48 c1 f8 02          	sar    $0x2,%rax
  412d25:	48 0f af c1          	imul   %rcx,%rax
  412d29:	48 b9 55 55 55 55 55 	movabs $0x1555555555555555,%rcx
  412d30:	55 55 15 
  412d33:	48 89 cf             	mov    %rcx,%rdi
  412d36:	48 29 c7             	sub    %rax,%rdi
  412d39:	48 39 f7             	cmp    %rsi,%rdi
  412d3c:	72 1d                	jb     412d5b <_ZNKSt6vectorI13TopologyEntrySaIS0_EE12_M_check_lenEmPKc+0x4b>
  412d3e:	48 39 f0             	cmp    %rsi,%rax
  412d41:	48 0f 43 f0          	cmovae %rax,%rsi
  412d45:	48 01 f0             	add    %rsi,%rax
  412d48:	72 05                	jb     412d4f <_ZNKSt6vectorI13TopologyEntrySaIS0_EE12_M_check_lenEmPKc+0x3f>
  412d4a:	48 39 c8             	cmp    %rcx,%rax
  412d4d:	76 0a                	jbe    412d59 <_ZNKSt6vectorI13TopologyEntrySaIS0_EE12_M_check_lenEmPKc+0x49>
  412d4f:	48 b8 55 55 55 55 55 	movabs $0x1555555555555555,%rax
  412d56:	55 55 15 
  412d59:	f3 c3                	repz retq 
  412d5b:	48 83 ec 08          	sub    $0x8,%rsp
  412d5f:	48 89 d7             	mov    %rdx,%rdi
  412d62:	e8 89 d7 ff ff       	callq  4104f0 <_ZSt20__throw_length_errorPKc@plt>
  412d67:	66 0f 1f 84 00 00 00 	nopw   0x0(%rax,%rax,1)
  412d6e:	00 00 

0000000000412d70 <_ZNSt6vectorI13TopologyEntrySaIS0_EE15_M_erase_at_endEPS0_>:
  412d70:	48 89 77 08          	mov    %rsi,0x8(%rdi)
  412d74:	c3                   	retq   
  412d75:	66 2e 0f 1f 84 00 00 	nopw   %cs:0x0(%rax,%rax,1)
  412d7c:	00 00 00 
  412d7f:	90                   	nop

0000000000412d80 <_ZNSt6vectorI13TopologyEntrySaIS0_EE8_M_eraseEN9__gnu_cxx17__normal_iteratorIPS0_S2_EE>:
  412d80:	4c 8b 4f 08          	mov    0x8(%rdi),%r9
  412d84:	48 8d 56 0c          	lea    0xc(%rsi),%rdx
  412d88:	48 89 f0             	mov    %rsi,%rax
  412d8b:	4c 39 ca             	cmp    %r9,%rdx
  412d8e:	74 47                	je     412dd7 <_ZNSt6vectorI13TopologyEntrySaIS0_EE8_M_eraseEN9__gnu_cxx17__normal_iteratorIPS0_S2_EE+0x57>
  412d90:	4d 89 c8             	mov    %r9,%r8
  412d93:	48 b9 ab aa aa aa aa 	movabs $0xaaaaaaaaaaaaaaab,%rcx
  412d9a:	aa aa aa 
  412d9d:	49 29 d0             	sub    %rdx,%r8
  412da0:	4c 89 c2             	mov    %r8,%rdx
  412da3:	48 c1 fa 02          	sar    $0x2,%rdx
  412da7:	48 0f af d1          	imul   %rcx,%rdx
  412dab:	48 85 d2             	test   %rdx,%rdx
  412dae:	7e 27                	jle    412dd7 <_ZNSt6vectorI13TopologyEntrySaIS0_EE8_M_eraseEN9__gnu_cxx17__normal_iteratorIPS0_S2_EE+0x57>
  412db0:	49 01 f0             	add    %rsi,%r8
  412db3:	48 89 f2             	mov    %rsi,%rdx
  412db6:	66 2e 0f 1f 84 00 00 	nopw   %cs:0x0(%rax,%rax,1)
  412dbd:	00 00 00 
  412dc0:	48 8b 4a 0c          	mov    0xc(%rdx),%rcx
  412dc4:	48 83 c2 0c          	add    $0xc,%rdx
  412dc8:	48 89 4a f4          	mov    %rcx,-0xc(%rdx)
  412dcc:	8b 4a 08             	mov    0x8(%rdx),%ecx
  412dcf:	89 4a fc             	mov    %ecx,-0x4(%rdx)
  412dd2:	4c 39 c2             	cmp    %r8,%rdx
  412dd5:	75 e9                	jne    412dc0 <_ZNSt6vectorI13TopologyEntrySaIS0_EE8_M_eraseEN9__gnu_cxx17__normal_iteratorIPS0_S2_EE+0x40>
  412dd7:	49 83 e9 0c          	sub    $0xc,%r9
  412ddb:	4c 89 4f 08          	mov    %r9,0x8(%rdi)
  412ddf:	c3                   	retq   

0000000000412de0 <_ZNSt6vectorI13TopologyEntrySaIS0_EE5eraseEN9__gnu_cxx17__normal_iteratorIPKS0_S2_EE>:
  412de0:	48 83 ec 08          	sub    $0x8,%rsp
  412de4:	e8 97 ff ff ff       	callq  412d80 <_ZNSt6vectorI13TopologyEntrySaIS0_EE8_M_eraseEN9__gnu_cxx17__normal_iteratorIPS0_S2_EE>
  412de9:	48 83 c4 08          	add    $0x8,%rsp
  412ded:	c3                   	retq   
  412dee:	66 90                	xchg   %ax,%ax

0000000000412df0 <_ZNSt6vectorI13TopologyEntrySaIS0_EE8_M_eraseEN9__gnu_cxx17__normal_iteratorIPS0_S2_EES6_>:
  412df0:	48 39 f2             	cmp    %rsi,%rdx
  412df3:	48 89 f0             	mov    %rsi,%rax
  412df6:	74 48                	je     412e40 <_ZNSt6vectorI13TopologyEntrySaIS0_EE8_M_eraseEN9__gnu_cxx17__normal_iteratorIPS0_S2_EES6_+0x50>
  412df8:	4c 8b 47 08          	mov    0x8(%rdi),%r8
  412dfc:	4c 39 c2             	cmp    %r8,%rdx
  412dff:	74 47                	je     412e48 <_ZNSt6vectorI13TopologyEntrySaIS0_EE8_M_eraseEN9__gnu_cxx17__normal_iteratorIPS0_S2_EES6_+0x58>
  412e01:	49 29 d0             	sub    %rdx,%r8
  412e04:	48 be ab aa aa aa aa 	movabs $0xaaaaaaaaaaaaaaab,%rsi
  412e0b:	aa aa aa 
  412e0e:	4c 89 c1             	mov    %r8,%rcx
  412e11:	48 c1 f9 02          	sar    $0x2,%rcx
  412e15:	48 0f af ce          	imul   %rsi,%rcx
  412e19:	48 85 c9             	test   %rcx,%rcx
  412e1c:	7e 1b                	jle    412e39 <_ZNSt6vectorI13TopologyEntrySaIS0_EE8_M_eraseEN9__gnu_cxx17__normal_iteratorIPS0_S2_EES6_+0x49>
  412e1e:	31 c9                	xor    %ecx,%ecx
  412e20:	48 8b 34 0a          	mov    (%rdx,%rcx,1),%rsi
  412e24:	48 89 34 08          	mov    %rsi,(%rax,%rcx,1)
  412e28:	8b 74 0a 08          	mov    0x8(%rdx,%rcx,1),%esi
  412e2c:	89 74 08 08          	mov    %esi,0x8(%rax,%rcx,1)
  412e30:	48 83 c1 0c          	add    $0xc,%rcx
  412e34:	4c 39 c1             	cmp    %r8,%rcx
  412e37:	75 e7                	jne    412e20 <_ZNSt6vectorI13TopologyEntrySaIS0_EE8_M_eraseEN9__gnu_cxx17__normal_iteratorIPS0_S2_EES6_+0x30>
  412e39:	49 01 c0             	add    %rax,%r8
  412e3c:	4c 89 47 08          	mov    %r8,0x8(%rdi)
  412e40:	f3 c3                	repz retq 
  412e42:	66 0f 1f 44 00 00    	nopw   0x0(%rax,%rax,1)
  412e48:	45 31 c0             	xor    %r8d,%r8d
  412e4b:	49 01 c0             	add    %rax,%r8
  412e4e:	4c 89 47 08          	mov    %r8,0x8(%rdi)
  412e52:	eb ec                	jmp    412e40 <_ZNSt6vectorI13TopologyEntrySaIS0_EE8_M_eraseEN9__gnu_cxx17__normal_iteratorIPS0_S2_EES6_+0x50>
  412e54:	66 2e 0f 1f 84 00 00 	nopw   %cs:0x0(%rax,%rax,1)
  412e5b:	00 00 00 
  412e5e:	66 90                	xchg   %ax,%ax

0000000000412e60 <_ZNSt6vectorI13TopologyEntrySaIS0_EE5eraseEN9__gnu_cxx17__normal_iteratorIPKS0_S2_EES7_>:
  412e60:	48 83 ec 08          	sub    $0x8,%rsp
  412e64:	e8 87 ff ff ff       	callq  412df0 <_ZNSt6vectorI13TopologyEntrySaIS0_EE8_M_eraseEN9__gnu_cxx17__normal_iteratorIPS0_S2_EES6_>
  412e69:	48 83 c4 08          	add    $0x8,%rsp
  412e6d:	c3                   	retq   
  412e6e:	66 90                	xchg   %ax,%ax

0000000000412e70 <_ZNSt6vectorI13TopologyEntrySaIS0_EE14_M_move_assignEOS2_St17integral_constantIbLb1EE>:
  412e70:	48 89 f8             	mov    %rdi,%rax
  412e73:	48 8b 3f             	mov    (%rdi),%rdi
  412e76:	48 c7 40 08 00 00 00 	movq   $0x0,0x8(%rax)
  412e7d:	00 
  412e7e:	48 c7 40 10 00 00 00 	movq   $0x0,0x10(%rax)
  412e85:	00 
  412e86:	48 c7 00 00 00 00 00 	movq   $0x0,(%rax)
  412e8d:	48 8b 16             	mov    (%rsi),%rdx
  412e90:	48 85 ff             	test   %rdi,%rdi
  412e93:	48 89 10             	mov    %rdx,(%rax)
  412e96:	48 c7 06 00 00 00 00 	movq   $0x0,(%rsi)
  412e9d:	48 8b 4e 08          	mov    0x8(%rsi),%rcx
  412ea1:	48 8b 50 08          	mov    0x8(%rax),%rdx
  412ea5:	48 89 48 08          	mov    %rcx,0x8(%rax)
  412ea9:	48 89 56 08          	mov    %rdx,0x8(%rsi)
  412ead:	48 8b 4e 10          	mov    0x10(%rsi),%rcx
  412eb1:	48 8b 50 10          	mov    0x10(%rax),%rdx
  412eb5:	48 89 48 10          	mov    %rcx,0x10(%rax)
  412eb9:	48 89 56 10          	mov    %rdx,0x10(%rsi)
  412ebd:	74 09                	je     412ec8 <_ZNSt6vectorI13TopologyEntrySaIS0_EE14_M_move_assignEOS2_St17integral_constantIbLb1EE+0x58>
  412ebf:	e9 8c d7 ff ff       	jmpq   410650 <_ZdlPv@plt>
  412ec4:	0f 1f 40 00          	nopl   0x0(%rax)
  412ec8:	f3 c3                	repz retq 
  412eca:	66 0f 1f 44 00 00    	nopw   0x0(%rax,%rax,1)

0000000000412ed0 <_ZNSt6vectorI13TopologyEntrySaIS0_EE14_M_move_assignEOS2_St17integral_constantIbLb0EE>:
  412ed0:	48 89 f8             	mov    %rdi,%rax
  412ed3:	48 8b 3f             	mov    (%rdi),%rdi
  412ed6:	48 c7 40 08 00 00 00 	movq   $0x0,0x8(%rax)
  412edd:	00 
  412ede:	48 c7 40 10 00 00 00 	movq   $0x0,0x10(%rax)
  412ee5:	00 
  412ee6:	48 c7 00 00 00 00 00 	movq   $0x0,(%rax)
  412eed:	48 8b 16             	mov    (%rsi),%rdx
  412ef0:	48 85 ff             	test   %rdi,%rdi
  412ef3:	48 89 10             	mov    %rdx,(%rax)
  412ef6:	48 c7 06 00 00 00 00 	movq   $0x0,(%rsi)
  412efd:	48 8b 4e 08          	mov    0x8(%rsi),%rcx
  412f01:	48 8b 50 08          	mov    0x8(%rax),%rdx
  412f05:	48 89 48 08          	mov    %rcx,0x8(%rax)
  412f09:	48 89 56 08          	mov    %rdx,0x8(%rsi)
  412f0d:	48 8b 4e 10          	mov    0x10(%rsi),%rcx
  412f11:	48 8b 50 10          	mov    0x10(%rax),%rdx
  412f15:	48 89 48 10          	mov    %rcx,0x10(%rax)
  412f19:	48 89 56 10          	mov    %rdx,0x10(%rsi)
  412f1d:	74 09                	je     412f28 <_ZNSt6vectorI13TopologyEntrySaIS0_EE14_M_move_assignEOS2_St17integral_constantIbLb0EE+0x58>
  412f1f:	e9 2c d7 ff ff       	jmpq   410650 <_ZdlPv@plt>
  412f24:	0f 1f 40 00          	nopl   0x0(%rax)
  412f28:	f3 c3                	repz retq 
  412f2a:	66 0f 1f 44 00 00    	nopw   0x0(%rax,%rax,1)

0000000000412f30 <_ZNSaIP20CounterWidthExtenderEC1Ev>:
  412f30:	f3 c3                	repz retq 
  412f32:	66 2e 0f 1f 84 00 00 	nopw   %cs:0x0(%rax,%rax,1)
  412f39:	00 00 00 
  412f3c:	0f 1f 40 00          	nopl   0x0(%rax)

0000000000412f40 <_ZNSaIP20CounterWidthExtenderEC1ERKS1_>:
  412f40:	f3 c3                	repz retq 
  412f42:	66 2e 0f 1f 84 00 00 	nopw   %cs:0x0(%rax,%rax,1)
  412f49:	00 00 00 
  412f4c:	0f 1f 40 00          	nopl   0x0(%rax)

0000000000412f50 <_ZNSaIP20CounterWidthExtenderED1Ev>:
  412f50:	f3 c3                	repz retq 
  412f52:	66 2e 0f 1f 84 00 00 	nopw   %cs:0x0(%rax,%rax,1)
  412f59:	00 00 00 
  412f5c:	0f 1f 40 00          	nopl   0x0(%rax)

0000000000412f60 <_ZNSt6vectorIP20CounterWidthExtenderSaIS1_EEC1Ev>:
  412f60:	48 c7 07 00 00 00 00 	movq   $0x0,(%rdi)
  412f67:	48 c7 47 08 00 00 00 	movq   $0x0,0x8(%rdi)
  412f6e:	00 
  412f6f:	48 c7 47 10 00 00 00 	movq   $0x0,0x10(%rdi)
  412f76:	00 
  412f77:	c3                   	retq   
  412f78:	0f 1f 84 00 00 00 00 	nopl   0x0(%rax,%rax,1)
  412f7f:	00 

0000000000412f80 <_ZNSt6vectorIP20CounterWidthExtenderSaIS1_EEC1ERKS2_>:
  412f80:	48 c7 07 00 00 00 00 	movq   $0x0,(%rdi)
  412f87:	48 c7 47 08 00 00 00 	movq   $0x0,0x8(%rdi)
  412f8e:	00 
  412f8f:	48 c7 47 10 00 00 00 	movq   $0x0,0x10(%rdi)
  412f96:	00 
  412f97:	c3                   	retq   
  412f98:	0f 1f 84 00 00 00 00 	nopl   0x0(%rax,%rax,1)
  412f9f:	00 

0000000000412fa0 <_ZNSt6vectorIP20CounterWidthExtenderSaIS1_EEC1EmRKS2_>:
  412fa0:	48 85 f6             	test   %rsi,%rsi
  412fa3:	41 54                	push   %r12
  412fa5:	55                   	push   %rbp
  412fa6:	48 89 fd             	mov    %rdi,%rbp
  412fa9:	53                   	push   %rbx
  412faa:	48 c7 07 00 00 00 00 	movq   $0x0,(%rdi)
  412fb1:	48 c7 47 08 00 00 00 	movq   $0x0,0x8(%rdi)
  412fb8:	00 
  412fb9:	48 c7 47 10 00 00 00 	movq   $0x0,0x10(%rdi)
  412fc0:	00 
  412fc1:	74 4f                	je     413012 <_ZNSt6vectorIP20CounterWidthExtenderSaIS1_EEC1EmRKS2_+0x72>
  412fc3:	48 b8 ff ff ff ff ff 	movabs $0x1fffffffffffffff,%rax
  412fca:	ff ff 1f 
  412fcd:	48 89 f3             	mov    %rsi,%rbx
  412fd0:	48 39 c6             	cmp    %rax,%rsi
  412fd3:	77 50                	ja     413025 <_ZNSt6vectorIP20CounterWidthExtenderSaIS1_EEC1EmRKS2_+0x85>
  412fd5:	4c 8d 24 f5 00 00 00 	lea    0x0(,%rsi,8),%r12
  412fdc:	00 
  412fdd:	4c 89 e7             	mov    %r12,%rdi
  412fe0:	e8 9b d6 ff ff       	callq  410680 <_Znwm@plt>
  412fe5:	4a 8d 3c 20          	lea    (%rax,%r12,1),%rdi
  412fe9:	48 89 45 00          	mov    %rax,0x0(%rbp)
  412fed:	48 89 7d 10          	mov    %rdi,0x10(%rbp)
  412ff1:	0f 1f 80 00 00 00 00 	nopl   0x0(%rax)
  412ff8:	48 c7 00 00 00 00 00 	movq   $0x0,(%rax)
  412fff:	48 83 c0 08          	add    $0x8,%rax
  413003:	48 83 eb 01          	sub    $0x1,%rbx
  413007:	75 ef                	jne    412ff8 <_ZNSt6vectorIP20CounterWidthExtenderSaIS1_EEC1EmRKS2_+0x58>
  413009:	48 89 7d 08          	mov    %rdi,0x8(%rbp)
  41300d:	5b                   	pop    %rbx
  41300e:	5d                   	pop    %rbp
  41300f:	41 5c                	pop    %r12
  413011:	c3                   	retq   
  413012:	48 c7 47 10 00 00 00 	movq   $0x0,0x10(%rdi)
  413019:	00 
  41301a:	31 ff                	xor    %edi,%edi
  41301c:	48 89 7d 08          	mov    %rdi,0x8(%rbp)
  413020:	5b                   	pop    %rbx
  413021:	5d                   	pop    %rbp
  413022:	41 5c                	pop    %r12
  413024:	c3                   	retq   
  413025:	e8 56 d4 ff ff       	callq  410480 <_ZSt17__throw_bad_allocv@plt>
  41302a:	66 0f 1f 44 00 00    	nopw   0x0(%rax,%rax,1)

0000000000413030 <_ZNSt6vectorIP20CounterWidthExtenderSaIS1_EEC1EmRKS1_RKS2_>:
  413030:	41 55                	push   %r13
  413032:	41 54                	push   %r12
  413034:	55                   	push   %rbp
  413035:	53                   	push   %rbx
  413036:	48 89 fd             	mov    %rdi,%rbp
  413039:	48 83 ec 08          	sub    $0x8,%rsp
  41303d:	48 85 f6             	test   %rsi,%rsi
  413040:	48 c7 07 00 00 00 00 	movq   $0x0,(%rdi)
  413047:	48 c7 47 08 00 00 00 	movq   $0x0,0x8(%rdi)
  41304e:	00 
  41304f:	48 c7 47 10 00 00 00 	movq   $0x0,0x10(%rdi)
  413056:	00 
  413057:	74 53                	je     4130ac <_ZNSt6vectorIP20CounterWidthExtenderSaIS1_EEC1EmRKS1_RKS2_+0x7c>
  413059:	48 b8 ff ff ff ff ff 	movabs $0x1fffffffffffffff,%rax
  413060:	ff ff 1f 
  413063:	48 89 f3             	mov    %rsi,%rbx
  413066:	48 39 c6             	cmp    %rax,%rsi
  413069:	77 5a                	ja     4130c5 <_ZNSt6vectorIP20CounterWidthExtenderSaIS1_EEC1EmRKS1_RKS2_+0x95>
  41306b:	4c 8d 24 f5 00 00 00 	lea    0x0(,%rsi,8),%r12
  413072:	00 
  413073:	49 89 d5             	mov    %rdx,%r13
  413076:	4c 89 e7             	mov    %r12,%rdi
  413079:	e8 02 d6 ff ff       	callq  410680 <_Znwm@plt>
  41307e:	49 8b 55 00          	mov    0x0(%r13),%rdx
  413082:	4a 8d 3c 20          	lea    (%rax,%r12,1),%rdi
  413086:	48 89 45 00          	mov    %rax,0x0(%rbp)
  41308a:	48 89 7d 10          	mov    %rdi,0x10(%rbp)
  41308e:	66 90                	xchg   %ax,%ax
  413090:	48 89 10             	mov    %rdx,(%rax)
  413093:	48 83 c0 08          	add    $0x8,%rax
  413097:	48 83 eb 01          	sub    $0x1,%rbx
  41309b:	75 f3                	jne    413090 <_ZNSt6vectorIP20CounterWidthExtenderSaIS1_EEC1EmRKS1_RKS2_+0x60>
  41309d:	48 89 7d 08          	mov    %rdi,0x8(%rbp)
  4130a1:	48 83 c4 08          	add    $0x8,%rsp
  4130a5:	5b                   	pop    %rbx
  4130a6:	5d                   	pop    %rbp
  4130a7:	41 5c                	pop    %r12
  4130a9:	41 5d                	pop    %r13
  4130ab:	c3                   	retq   
  4130ac:	48 c7 47 10 00 00 00 	movq   $0x0,0x10(%rdi)
  4130b3:	00 
  4130b4:	31 ff                	xor    %edi,%edi
  4130b6:	48 89 7d 08          	mov    %rdi,0x8(%rbp)
  4130ba:	48 83 c4 08          	add    $0x8,%rsp
  4130be:	5b                   	pop    %rbx
  4130bf:	5d                   	pop    %rbp
  4130c0:	41 5c                	pop    %r12
  4130c2:	41 5d                	pop    %r13
  4130c4:	c3                   	retq   
  4130c5:	e8 b6 d3 ff ff       	callq  410480 <_ZSt17__throw_bad_allocv@plt>
  4130ca:	66 0f 1f 44 00 00    	nopw   0x0(%rax,%rax,1)

00000000004130d0 <_ZNSt6vectorIP20CounterWidthExtenderSaIS1_EEC1ERKS3_>:
  4130d0:	41 54                	push   %r12
  4130d2:	55                   	push   %rbp
  4130d3:	31 c9                	xor    %ecx,%ecx
  4130d5:	53                   	push   %rbx
  4130d6:	48 8b 6e 08          	mov    0x8(%rsi),%rbp
  4130da:	48 89 fb             	mov    %rdi,%rbx
  4130dd:	48 2b 2e             	sub    (%rsi),%rbp
  4130e0:	49 89 f4             	mov    %rsi,%r12
  4130e3:	48 c7 07 00 00 00 00 	movq   $0x0,(%rdi)
  4130ea:	48 c7 47 08 00 00 00 	movq   $0x0,0x8(%rdi)
  4130f1:	00 
  4130f2:	48 c7 47 10 00 00 00 	movq   $0x0,0x10(%rdi)
  4130f9:	00 
  4130fa:	48 89 e8             	mov    %rbp,%rax
  4130fd:	48 c1 f8 03          	sar    $0x3,%rax
  413101:	48 85 c0             	test   %rax,%rax
  413104:	74 1a                	je     413120 <_ZNSt6vectorIP20CounterWidthExtenderSaIS1_EEC1ERKS3_+0x50>
  413106:	48 ba ff ff ff ff ff 	movabs $0x1fffffffffffffff,%rdx
  41310d:	ff ff 1f 
  413110:	48 39 d0             	cmp    %rdx,%rax
  413113:	77 4b                	ja     413160 <_ZNSt6vectorIP20CounterWidthExtenderSaIS1_EEC1ERKS3_+0x90>
  413115:	48 89 ef             	mov    %rbp,%rdi
  413118:	e8 63 d5 ff ff       	callq  410680 <_Znwm@plt>
  41311d:	48 89 c1             	mov    %rax,%rcx
  413120:	48 01 cd             	add    %rcx,%rbp
  413123:	48 89 0b             	mov    %rcx,(%rbx)
  413126:	48 89 4b 08          	mov    %rcx,0x8(%rbx)
  41312a:	48 89 6b 10          	mov    %rbp,0x10(%rbx)
  41312e:	49 8b 34 24          	mov    (%r12),%rsi
  413132:	49 8b 6c 24 08       	mov    0x8(%r12),%rbp
  413137:	48 29 f5             	sub    %rsi,%rbp
  41313a:	48 89 e8             	mov    %rbp,%rax
  41313d:	48 c1 f8 03          	sar    $0x3,%rax
  413141:	48 85 c0             	test   %rax,%rax
  413144:	74 0e                	je     413154 <_ZNSt6vectorIP20CounterWidthExtenderSaIS1_EEC1ERKS3_+0x84>
  413146:	48 89 cf             	mov    %rcx,%rdi
  413149:	48 89 ea             	mov    %rbp,%rdx
  41314c:	e8 3f d7 ff ff       	callq  410890 <memmove@plt>
  413151:	48 89 c1             	mov    %rax,%rcx
  413154:	48 01 e9             	add    %rbp,%rcx
  413157:	48 89 4b 08          	mov    %rcx,0x8(%rbx)
  41315b:	5b                   	pop    %rbx
  41315c:	5d                   	pop    %rbp
  41315d:	41 5c                	pop    %r12
  41315f:	c3                   	retq   
  413160:	e8 1b d3 ff ff       	callq  410480 <_ZSt17__throw_bad_allocv@plt>
  413165:	66 2e 0f 1f 84 00 00 	nopw   %cs:0x0(%rax,%rax,1)
  41316c:	00 00 00 
  41316f:	90                   	nop

0000000000413170 <_ZNSt6vectorIP20CounterWidthExtenderSaIS1_EEC1EOS3_>:
  413170:	48 c7 47 08 00 00 00 	movq   $0x0,0x8(%rdi)
  413177:	00 
  413178:	48 c7 47 10 00 00 00 	movq   $0x0,0x10(%rdi)
  41317f:	00 
  413180:	48 c7 07 00 00 00 00 	movq   $0x0,(%rdi)
  413187:	48 8b 06             	mov    (%rsi),%rax
  41318a:	48 89 07             	mov    %rax,(%rdi)
  41318d:	48 c7 06 00 00 00 00 	movq   $0x0,(%rsi)
  413194:	48 8b 56 08          	mov    0x8(%rsi),%rdx
  413198:	48 8b 47 08          	mov    0x8(%rdi),%rax
  41319c:	48 89 57 08          	mov    %rdx,0x8(%rdi)
  4131a0:	48 89 46 08          	mov    %rax,0x8(%rsi)
  4131a4:	48 8b 56 10          	mov    0x10(%rsi),%rdx
  4131a8:	48 8b 47 10          	mov    0x10(%rdi),%rax
  4131ac:	48 89 57 10          	mov    %rdx,0x10(%rdi)
  4131b0:	48 89 46 10          	mov    %rax,0x10(%rsi)
  4131b4:	c3                   	retq   
  4131b5:	66 2e 0f 1f 84 00 00 	nopw   %cs:0x0(%rax,%rax,1)
  4131bc:	00 00 00 
  4131bf:	90                   	nop

00000000004131c0 <_ZNSt6vectorIP20CounterWidthExtenderSaIS1_EEC1ERKS3_RKS2_>:
  4131c0:	41 54                	push   %r12
  4131c2:	55                   	push   %rbp
  4131c3:	31 c9                	xor    %ecx,%ecx
  4131c5:	53                   	push   %rbx
  4131c6:	48 8b 6e 08          	mov    0x8(%rsi),%rbp
  4131ca:	48 89 fb             	mov    %rdi,%rbx
  4131cd:	48 2b 2e             	sub    (%rsi),%rbp
  4131d0:	49 89 f4             	mov    %rsi,%r12
  4131d3:	48 c7 07 00 00 00 00 	movq   $0x0,(%rdi)
  4131da:	48 c7 47 08 00 00 00 	movq   $0x0,0x8(%rdi)
  4131e1:	00 
  4131e2:	48 c7 47 10 00 00 00 	movq   $0x0,0x10(%rdi)
  4131e9:	00 
  4131ea:	48 89 e8             	mov    %rbp,%rax
  4131ed:	48 c1 f8 03          	sar    $0x3,%rax
  4131f1:	48 85 c0             	test   %rax,%rax
  4131f4:	74 1a                	je     413210 <_ZNSt6vectorIP20CounterWidthExtenderSaIS1_EEC1ERKS3_RKS2_+0x50>
  4131f6:	48 ba ff ff ff ff ff 	movabs $0x1fffffffffffffff,%rdx
  4131fd:	ff ff 1f 
  413200:	48 39 d0             	cmp    %rdx,%rax
  413203:	77 4b                	ja     413250 <_ZNSt6vectorIP20CounterWidthExtenderSaIS1_EEC1ERKS3_RKS2_+0x90>
  413205:	48 89 ef             	mov    %rbp,%rdi
  413208:	e8 73 d4 ff ff       	callq  410680 <_Znwm@plt>
  41320d:	48 89 c1             	mov    %rax,%rcx
  413210:	48 01 cd             	add    %rcx,%rbp
  413213:	48 89 0b             	mov    %rcx,(%rbx)
  413216:	48 89 4b 08          	mov    %rcx,0x8(%rbx)
  41321a:	48 89 6b 10          	mov    %rbp,0x10(%rbx)
  41321e:	49 8b 34 24          	mov    (%r12),%rsi
  413222:	49 8b 6c 24 08       	mov    0x8(%r12),%rbp
  413227:	48 29 f5             	sub    %rsi,%rbp
  41322a:	48 89 e8             	mov    %rbp,%rax
  41322d:	48 c1 f8 03          	sar    $0x3,%rax
  413231:	48 85 c0             	test   %rax,%rax
  413234:	74 0e                	je     413244 <_ZNSt6vectorIP20CounterWidthExtenderSaIS1_EEC1ERKS3_RKS2_+0x84>
  413236:	48 89 cf             	mov    %rcx,%rdi
  413239:	48 89 ea             	mov    %rbp,%rdx
  41323c:	e8 4f d6 ff ff       	callq  410890 <memmove@plt>
  413241:	48 89 c1             	mov    %rax,%rcx
  413244:	48 01 e9             	add    %rbp,%rcx
  413247:	48 89 4b 08          	mov    %rcx,0x8(%rbx)
  41324b:	5b                   	pop    %rbx
  41324c:	5d                   	pop    %rbp
  41324d:	41 5c                	pop    %r12
  41324f:	c3                   	retq   
  413250:	e8 2b d2 ff ff       	callq  410480 <_ZSt17__throw_bad_allocv@plt>
  413255:	66 2e 0f 1f 84 00 00 	nopw   %cs:0x0(%rax,%rax,1)
  41325c:	00 00 00 
  41325f:	90                   	nop

0000000000413260 <_ZNSt6vectorIP20CounterWidthExtenderSaIS1_EEC1EOS3_RKS2_>:
  413260:	48 c7 47 08 00 00 00 	movq   $0x0,0x8(%rdi)
  413267:	00 
  413268:	48 c7 47 10 00 00 00 	movq   $0x0,0x10(%rdi)
  41326f:	00 
  413270:	48 c7 07 00 00 00 00 	movq   $0x0,(%rdi)
  413277:	48 8b 06             	mov    (%rsi),%rax
  41327a:	48 89 07             	mov    %rax,(%rdi)
  41327d:	48 c7 06 00 00 00 00 	movq   $0x0,(%rsi)
  413284:	48 8b 56 08          	mov    0x8(%rsi),%rdx
  413288:	48 8b 47 08          	mov    0x8(%rdi),%rax
  41328c:	48 89 57 08          	mov    %rdx,0x8(%rdi)
  413290:	48 89 46 08          	mov    %rax,0x8(%rsi)
  413294:	48 8b 56 10          	mov    0x10(%rsi),%rdx
  413298:	48 8b 47 10          	mov    0x10(%rdi),%rax
  41329c:	48 89 57 10          	mov    %rdx,0x10(%rdi)
  4132a0:	48 89 46 10          	mov    %rax,0x10(%rsi)
  4132a4:	c3                   	retq   
  4132a5:	66 2e 0f 1f 84 00 00 	nopw   %cs:0x0(%rax,%rax,1)
  4132ac:	00 00 00 
  4132af:	90                   	nop

00000000004132b0 <_ZNSt6vectorIP20CounterWidthExtenderSaIS1_EEC1ESt16initializer_listIS1_ERKS2_>:
  4132b0:	41 56                	push   %r14
  4132b2:	41 55                	push   %r13
  4132b4:	49 89 f5             	mov    %rsi,%r13
  4132b7:	41 54                	push   %r12
  4132b9:	55                   	push   %rbp
  4132ba:	48 8d 2c d5 00 00 00 	lea    0x0(,%rdx,8),%rbp
  4132c1:	00 
  4132c2:	53                   	push   %rbx
  4132c3:	48 89 fb             	mov    %rdi,%rbx
  4132c6:	48 c7 07 00 00 00 00 	movq   $0x0,(%rdi)
  4132cd:	49 89 ee             	mov    %rbp,%r14
  4132d0:	48 c7 47 08 00 00 00 	movq   $0x0,0x8(%rdi)
  4132d7:	00 
  4132d8:	48 c7 47 10 00 00 00 	movq   $0x0,0x10(%rdi)
  4132df:	00 
  4132e0:	49 c1 fe 03          	sar    $0x3,%r14
  4132e4:	4d 85 f6             	test   %r14,%r14
  4132e7:	74 47                	je     413330 <_ZNSt6vectorIP20CounterWidthExtenderSaIS1_EEC1ESt16initializer_listIS1_ERKS2_+0x80>
  4132e9:	48 b8 ff ff ff ff ff 	movabs $0x1fffffffffffffff,%rax
  4132f0:	ff ff 1f 
  4132f3:	49 39 c6             	cmp    %rax,%r14
  4132f6:	77 3c                	ja     413334 <_ZNSt6vectorIP20CounterWidthExtenderSaIS1_EEC1ESt16initializer_listIS1_ERKS2_+0x84>
  4132f8:	48 89 ef             	mov    %rbp,%rdi
  4132fb:	e8 80 d3 ff ff       	callq  410680 <_Znwm@plt>
  413300:	4c 8d 24 28          	lea    (%rax,%rbp,1),%r12
  413304:	4d 85 f6             	test   %r14,%r14
  413307:	48 89 03             	mov    %rax,(%rbx)
  41330a:	4c 89 63 10          	mov    %r12,0x10(%rbx)
  41330e:	74 0e                	je     41331e <_ZNSt6vectorIP20CounterWidthExtenderSaIS1_EEC1ESt16initializer_listIS1_ERKS2_+0x6e>
  413310:	48 89 ea             	mov    %rbp,%rdx
  413313:	4c 89 ee             	mov    %r13,%rsi
  413316:	48 89 c7             	mov    %rax,%rdi
  413319:	e8 d2 d2 ff ff       	callq  4105f0 <memcpy@plt>
  41331e:	4c 89 63 08          	mov    %r12,0x8(%rbx)
  413322:	5b                   	pop    %rbx
  413323:	5d                   	pop    %rbp
  413324:	41 5c                	pop    %r12
  413326:	41 5d                	pop    %r13
  413328:	41 5e                	pop    %r14
  41332a:	c3                   	retq   
  41332b:	0f 1f 44 00 00       	nopl   0x0(%rax,%rax,1)
  413330:	31 c0                	xor    %eax,%eax
  413332:	eb cc                	jmp    413300 <_ZNSt6vectorIP20CounterWidthExtenderSaIS1_EEC1ESt16initializer_listIS1_ERKS2_+0x50>
  413334:	e8 47 d1 ff ff       	callq  410480 <_ZSt17__throw_bad_allocv@plt>
  413339:	48 8b 3b             	mov    (%rbx),%rdi
  41333c:	48 89 c5             	mov    %rax,%rbp
  41333f:	48 85 ff             	test   %rdi,%rdi
  413342:	74 05                	je     413349 <_ZNSt6vectorIP20CounterWidthExtenderSaIS1_EEC1ESt16initializer_listIS1_ERKS2_+0x99>
  413344:	e8 07 d3 ff ff       	callq  410650 <_ZdlPv@plt>
  413349:	48 89 ef             	mov    %rbp,%rdi
  41334c:	e8 cf d5 ff ff       	callq  410920 <_Unwind_Resume@plt>
  413351:	66 2e 0f 1f 84 00 00 	nopw   %cs:0x0(%rax,%rax,1)
  413358:	00 00 00 
  41335b:	0f 1f 44 00 00       	nopl   0x0(%rax,%rax,1)

0000000000413360 <_ZNSt6vectorIP20CounterWidthExtenderSaIS1_EED1Ev>:
  413360:	48 8b 3f             	mov    (%rdi),%rdi
  413363:	48 85 ff             	test   %rdi,%rdi
  413366:	74 08                	je     413370 <_ZNSt6vectorIP20CounterWidthExtenderSaIS1_EED1Ev+0x10>
  413368:	e9 e3 d2 ff ff       	jmpq   410650 <_ZdlPv@plt>
  41336d:	0f 1f 00             	nopl   (%rax)
  413370:	f3 c3                	repz retq 
  413372:	66 2e 0f 1f 84 00 00 	nopw   %cs:0x0(%rax,%rax,1)
  413379:	00 00 00 
  41337c:	0f 1f 40 00          	nopl   0x0(%rax)

0000000000413380 <_ZNSt6vectorIP20CounterWidthExtenderSaIS1_EEaSERKS3_>:
  413380:	41 57                	push   %r15
  413382:	41 56                	push   %r14
  413384:	41 55                	push   %r13
  413386:	41 54                	push   %r12
  413388:	55                   	push   %rbp
  413389:	53                   	push   %rbx
  41338a:	48 89 fb             	mov    %rdi,%rbx
  41338d:	48 83 ec 08          	sub    $0x8,%rsp
  413391:	48 39 fe             	cmp    %rdi,%rsi
  413394:	74 66                	je     4133fc <_ZNSt6vectorIP20CounterWidthExtenderSaIS1_EEaSERKS3_+0x7c>
  413396:	48 8b 46 08          	mov    0x8(%rsi),%rax
  41339a:	4c 8b 3e             	mov    (%rsi),%r15
  41339d:	49 89 f4             	mov    %rsi,%r12
  4133a0:	4c 8b 2f             	mov    (%rdi),%r13
  4133a3:	48 8b 4f 10          	mov    0x10(%rdi),%rcx
  4133a7:	48 89 c5             	mov    %rax,%rbp
  4133aa:	4c 29 fd             	sub    %r15,%rbp
  4133ad:	4c 29 e9             	sub    %r13,%rcx
  4133b0:	49 89 ee             	mov    %rbp,%r14
  4133b3:	48 c1 f9 03          	sar    $0x3,%rcx
  4133b7:	49 c1 fe 03          	sar    $0x3,%r14
  4133bb:	4c 39 f1             	cmp    %r14,%rcx
  4133be:	72 70                	jb     413430 <_ZNSt6vectorIP20CounterWidthExtenderSaIS1_EEaSERKS3_+0xb0>
  4133c0:	48 8b 7f 08          	mov    0x8(%rdi),%rdi
  4133c4:	48 89 fe             	mov    %rdi,%rsi
  4133c7:	4c 29 ee             	sub    %r13,%rsi
  4133ca:	48 89 f2             	mov    %rsi,%rdx
  4133cd:	48 c1 fa 03          	sar    $0x3,%rdx
  4133d1:	49 39 d6             	cmp    %rdx,%r14
  4133d4:	76 3a                	jbe    413410 <_ZNSt6vectorIP20CounterWidthExtenderSaIS1_EEaSERKS3_+0x90>
  4133d6:	48 85 d2             	test   %rdx,%rdx
  4133d9:	0f 85 d1 00 00 00    	jne    4134b0 <_ZNSt6vectorIP20CounterWidthExtenderSaIS1_EEaSERKS3_+0x130>
  4133df:	4c 01 fe             	add    %r15,%rsi
  4133e2:	48 29 f0             	sub    %rsi,%rax
  4133e5:	48 89 c2             	mov    %rax,%rdx
  4133e8:	48 c1 fa 03          	sar    $0x3,%rdx
  4133ec:	48 85 d2             	test   %rdx,%rdx
  4133ef:	0f 85 a3 00 00 00    	jne    413498 <_ZNSt6vectorIP20CounterWidthExtenderSaIS1_EEaSERKS3_+0x118>
  4133f5:	4c 01 ed             	add    %r13,%rbp
  4133f8:	48 89 6b 08          	mov    %rbp,0x8(%rbx)
  4133fc:	48 83 c4 08          	add    $0x8,%rsp
  413400:	48 89 d8             	mov    %rbx,%rax
  413403:	5b                   	pop    %rbx
  413404:	5d                   	pop    %rbp
  413405:	41 5c                	pop    %r12
  413407:	41 5d                	pop    %r13
  413409:	41 5e                	pop    %r14
  41340b:	41 5f                	pop    %r15
  41340d:	c3                   	retq   
  41340e:	66 90                	xchg   %ax,%ax
  413410:	4d 85 f6             	test   %r14,%r14
  413413:	74 e0                	je     4133f5 <_ZNSt6vectorIP20CounterWidthExtenderSaIS1_EEaSERKS3_+0x75>
  413415:	48 89 ea             	mov    %rbp,%rdx
  413418:	4c 89 fe             	mov    %r15,%rsi
  41341b:	4c 89 ef             	mov    %r13,%rdi
  41341e:	e8 6d d4 ff ff       	callq  410890 <memmove@plt>
  413423:	48 03 2b             	add    (%rbx),%rbp
  413426:	eb d0                	jmp    4133f8 <_ZNSt6vectorIP20CounterWidthExtenderSaIS1_EEaSERKS3_+0x78>
  413428:	0f 1f 84 00 00 00 00 	nopl   0x0(%rax,%rax,1)
  41342f:	00 
  413430:	45 31 e4             	xor    %r12d,%r12d
  413433:	4d 85 f6             	test   %r14,%r14
  413436:	74 26                	je     41345e <_ZNSt6vectorIP20CounterWidthExtenderSaIS1_EEaSERKS3_+0xde>
  413438:	48 b8 ff ff ff ff ff 	movabs $0x1fffffffffffffff,%rax
  41343f:	ff ff 1f 
  413442:	49 39 c6             	cmp    %rax,%r14
  413445:	0f 87 8e 00 00 00    	ja     4134d9 <_ZNSt6vectorIP20CounterWidthExtenderSaIS1_EEaSERKS3_+0x159>
  41344b:	48 89 ef             	mov    %rbp,%rdi
  41344e:	e8 2d d2 ff ff       	callq  410680 <_Znwm@plt>
  413453:	4d 85 f6             	test   %r14,%r14
  413456:	49 89 c4             	mov    %rax,%r12
  413459:	4c 8b 2b             	mov    (%rbx),%r13
  41345c:	75 22                	jne    413480 <_ZNSt6vectorIP20CounterWidthExtenderSaIS1_EEaSERKS3_+0x100>
  41345e:	4d 85 ed             	test   %r13,%r13
  413461:	74 08                	je     41346b <_ZNSt6vectorIP20CounterWidthExtenderSaIS1_EEaSERKS3_+0xeb>
  413463:	4c 89 ef             	mov    %r13,%rdi
  413466:	e8 e5 d1 ff ff       	callq  410650 <_ZdlPv@plt>
  41346b:	4c 01 e5             	add    %r12,%rbp
  41346e:	4c 89 23             	mov    %r12,(%rbx)
  413471:	48 89 6b 10          	mov    %rbp,0x10(%rbx)
  413475:	eb 81                	jmp    4133f8 <_ZNSt6vectorIP20CounterWidthExtenderSaIS1_EEaSERKS3_+0x78>
  413477:	66 0f 1f 84 00 00 00 	nopw   0x0(%rax,%rax,1)
  41347e:	00 00 
  413480:	48 89 ea             	mov    %rbp,%rdx
  413483:	4c 89 fe             	mov    %r15,%rsi
  413486:	48 89 c7             	mov    %rax,%rdi
  413489:	e8 02 d4 ff ff       	callq  410890 <memmove@plt>
  41348e:	4d 85 ed             	test   %r13,%r13
  413491:	75 d0                	jne    413463 <_ZNSt6vectorIP20CounterWidthExtenderSaIS1_EEaSERKS3_+0xe3>
  413493:	eb d6                	jmp    41346b <_ZNSt6vectorIP20CounterWidthExtenderSaIS1_EEaSERKS3_+0xeb>
  413495:	0f 1f 00             	nopl   (%rax)
  413498:	48 89 c2             	mov    %rax,%rdx
  41349b:	e8 f0 d3 ff ff       	callq  410890 <memmove@plt>
  4134a0:	48 03 2b             	add    (%rbx),%rbp
  4134a3:	e9 50 ff ff ff       	jmpq   4133f8 <_ZNSt6vectorIP20CounterWidthExtenderSaIS1_EEaSERKS3_+0x78>
  4134a8:	0f 1f 84 00 00 00 00 	nopl   0x0(%rax,%rax,1)
  4134af:	00 
  4134b0:	4c 89 ef             	mov    %r13,%rdi
  4134b3:	48 89 f2             	mov    %rsi,%rdx
  4134b6:	4c 89 fe             	mov    %r15,%rsi
  4134b9:	e8 d2 d3 ff ff       	callq  410890 <memmove@plt>
  4134be:	48 8b 7b 08          	mov    0x8(%rbx),%rdi
  4134c2:	4c 8b 2b             	mov    (%rbx),%r13
  4134c5:	4d 8b 3c 24          	mov    (%r12),%r15
  4134c9:	49 8b 44 24 08       	mov    0x8(%r12),%rax
  4134ce:	48 89 fe             	mov    %rdi,%rsi
  4134d1:	4c 29 ee             	sub    %r13,%rsi
  4134d4:	e9 06 ff ff ff       	jmpq   4133df <_ZNSt6vectorIP20CounterWidthExtenderSaIS1_EEaSERKS3_+0x5f>
  4134d9:	e8 a2 cf ff ff       	callq  410480 <_ZSt17__throw_bad_allocv@plt>
  4134de:	66 90                	xchg   %ax,%ax

00000000004134e0 <_ZNSt6vectorIP20CounterWidthExtenderSaIS1_EEaSEOS3_>:
  4134e0:	53                   	push   %rbx
  4134e1:	48 89 fb             	mov    %rdi,%rbx
  4134e4:	48 8b 3f             	mov    (%rdi),%rdi
  4134e7:	48 c7 43 08 00 00 00 	movq   $0x0,0x8(%rbx)
  4134ee:	00 
  4134ef:	48 c7 43 10 00 00 00 	movq   $0x0,0x10(%rbx)
  4134f6:	00 
  4134f7:	48 c7 03 00 00 00 00 	movq   $0x0,(%rbx)
  4134fe:	48 8b 06             	mov    (%rsi),%rax
  413501:	48 85 ff             	test   %rdi,%rdi
  413504:	48 89 03             	mov    %rax,(%rbx)
  413507:	48 c7 06 00 00 00 00 	movq   $0x0,(%rsi)
  41350e:	48 8b 56 08          	mov    0x8(%rsi),%rdx
  413512:	48 8b 43 08          	mov    0x8(%rbx),%rax
  413516:	48 89 53 08          	mov    %rdx,0x8(%rbx)
  41351a:	48 89 46 08          	mov    %rax,0x8(%rsi)
  41351e:	48 8b 56 10          	mov    0x10(%rsi),%rdx
  413522:	48 8b 43 10          	mov    0x10(%rbx),%rax
  413526:	48 89 53 10          	mov    %rdx,0x10(%rbx)
  41352a:	48 89 46 10          	mov    %rax,0x10(%rsi)
  41352e:	74 05                	je     413535 <_ZNSt6vectorIP20CounterWidthExtenderSaIS1_EEaSEOS3_+0x55>
  413530:	e8 1b d1 ff ff       	callq  410650 <_ZdlPv@plt>
  413535:	48 89 d8             	mov    %rbx,%rax
  413538:	5b                   	pop    %rbx
  413539:	c3                   	retq   
  41353a:	66 0f 1f 44 00 00    	nopw   0x0(%rax,%rax,1)

0000000000413540 <_ZNSt6vectorIP20CounterWidthExtenderSaIS1_EE5beginEv>:
  413540:	48 8b 07             	mov    (%rdi),%rax
  413543:	c3                   	retq   
  413544:	66 2e 0f 1f 84 00 00 	nopw   %cs:0x0(%rax,%rax,1)
  41354b:	00 00 00 
  41354e:	66 90                	xchg   %ax,%ax

0000000000413550 <_ZNKSt6vectorIP20CounterWidthExtenderSaIS1_EE5beginEv>:
  413550:	48 8b 07             	mov    (%rdi),%rax
  413553:	c3                   	retq   
  413554:	66 2e 0f 1f 84 00 00 	nopw   %cs:0x0(%rax,%rax,1)
  41355b:	00 00 00 
  41355e:	66 90                	xchg   %ax,%ax

0000000000413560 <_ZNSt6vectorIP20CounterWidthExtenderSaIS1_EE3endEv>:
  413560:	48 8b 47 08          	mov    0x8(%rdi),%rax
  413564:	c3                   	retq   
  413565:	66 2e 0f 1f 84 00 00 	nopw   %cs:0x0(%rax,%rax,1)
  41356c:	00 00 00 
  41356f:	90                   	nop

0000000000413570 <_ZNKSt6vectorIP20CounterWidthExtenderSaIS1_EE3endEv>:
  413570:	48 8b 47 08          	mov    0x8(%rdi),%rax
  413574:	c3                   	retq   
  413575:	66 2e 0f 1f 84 00 00 	nopw   %cs:0x0(%rax,%rax,1)
  41357c:	00 00 00 
  41357f:	90                   	nop

0000000000413580 <_ZNSt6vectorIP20CounterWidthExtenderSaIS1_EE6rbeginEv>:
  413580:	48 8b 56 08          	mov    0x8(%rsi),%rdx
  413584:	48 89 f8             	mov    %rdi,%rax
  413587:	48 89 17             	mov    %rdx,(%rdi)
  41358a:	c3                   	retq   
  41358b:	0f 1f 44 00 00       	nopl   0x0(%rax,%rax,1)

0000000000413590 <_ZNKSt6vectorIP20CounterWidthExtenderSaIS1_EE6rbeginEv>:
  413590:	48 8b 56 08          	mov    0x8(%rsi),%rdx
  413594:	48 89 f8             	mov    %rdi,%rax
  413597:	48 89 17             	mov    %rdx,(%rdi)
  41359a:	c3                   	retq   
  41359b:	0f 1f 44 00 00       	nopl   0x0(%rax,%rax,1)

00000000004135a0 <_ZNSt6vectorIP20CounterWidthExtenderSaIS1_EE4rendEv>:
  4135a0:	48 8b 16             	mov    (%rsi),%rdx
  4135a3:	48 89 f8             	mov    %rdi,%rax
  4135a6:	48 89 17             	mov    %rdx,(%rdi)
  4135a9:	c3                   	retq   
  4135aa:	66 0f 1f 44 00 00    	nopw   0x0(%rax,%rax,1)

00000000004135b0 <_ZNKSt6vectorIP20CounterWidthExtenderSaIS1_EE4rendEv>:
  4135b0:	48 8b 16             	mov    (%rsi),%rdx
  4135b3:	48 89 f8             	mov    %rdi,%rax
  4135b6:	48 89 17             	mov    %rdx,(%rdi)
  4135b9:	c3                   	retq   
  4135ba:	66 0f 1f 44 00 00    	nopw   0x0(%rax,%rax,1)

00000000004135c0 <_ZNKSt6vectorIP20CounterWidthExtenderSaIS1_EE6cbeginEv>:
  4135c0:	48 8b 07             	mov    (%rdi),%rax
  4135c3:	c3                   	retq   
  4135c4:	66 2e 0f 1f 84 00 00 	nopw   %cs:0x0(%rax,%rax,1)
  4135cb:	00 00 00 
  4135ce:	66 90                	xchg   %ax,%ax

00000000004135d0 <_ZNKSt6vectorIP20CounterWidthExtenderSaIS1_EE4cendEv>:
  4135d0:	48 8b 47 08          	mov    0x8(%rdi),%rax
  4135d4:	c3                   	retq   
  4135d5:	66 2e 0f 1f 84 00 00 	nopw   %cs:0x0(%rax,%rax,1)
  4135dc:	00 00 00 
  4135df:	90                   	nop

00000000004135e0 <_ZNKSt6vectorIP20CounterWidthExtenderSaIS1_EE7crbeginEv>:
  4135e0:	48 8b 56 08          	mov    0x8(%rsi),%rdx
  4135e4:	48 89 f8             	mov    %rdi,%rax
  4135e7:	48 89 17             	mov    %rdx,(%rdi)
  4135ea:	c3                   	retq   
  4135eb:	0f 1f 44 00 00       	nopl   0x0(%rax,%rax,1)

00000000004135f0 <_ZNKSt6vectorIP20CounterWidthExtenderSaIS1_EE5crendEv>:
  4135f0:	48 8b 16             	mov    (%rsi),%rdx
  4135f3:	48 89 f8             	mov    %rdi,%rax
  4135f6:	48 89 17             	mov    %rdx,(%rdi)
  4135f9:	c3                   	retq   
  4135fa:	66 0f 1f 44 00 00    	nopw   0x0(%rax,%rax,1)

0000000000413600 <_ZNKSt6vectorIP20CounterWidthExtenderSaIS1_EE4sizeEv>:
  413600:	48 8b 47 08          	mov    0x8(%rdi),%rax
  413604:	48 2b 07             	sub    (%rdi),%rax
  413607:	48 c1 f8 03          	sar    $0x3,%rax
  41360b:	c3                   	retq   
  41360c:	0f 1f 40 00          	nopl   0x0(%rax)

0000000000413610 <_ZNKSt6vectorIP20CounterWidthExtenderSaIS1_EE8max_sizeEv>:
  413610:	48 b8 ff ff ff ff ff 	movabs $0x1fffffffffffffff,%rax
  413617:	ff ff 1f 
  41361a:	c3                   	retq   
  41361b:	0f 1f 44 00 00       	nopl   0x0(%rax,%rax,1)

0000000000413620 <_ZNKSt6vectorIP20CounterWidthExtenderSaIS1_EE8capacityEv>:
  413620:	48 8b 47 10          	mov    0x10(%rdi),%rax
  413624:	48 2b 07             	sub    (%rdi),%rax
  413627:	48 c1 f8 03          	sar    $0x3,%rax
  41362b:	c3                   	retq   
  41362c:	0f 1f 40 00          	nopl   0x0(%rax)

0000000000413630 <_ZNKSt6vectorIP20CounterWidthExtenderSaIS1_EE5emptyEv>:
  413630:	48 8b 47 08          	mov    0x8(%rdi),%rax
  413634:	48 39 07             	cmp    %rax,(%rdi)
  413637:	0f 94 c0             	sete   %al
  41363a:	c3                   	retq   
  41363b:	0f 1f 44 00 00       	nopl   0x0(%rax,%rax,1)

0000000000413640 <_ZNSt6vectorIP20CounterWidthExtenderSaIS1_EE7reserveEm>:
  413640:	41 57                	push   %r15
  413642:	41 56                	push   %r14
  413644:	48 b8 ff ff ff ff ff 	movabs $0x1fffffffffffffff,%rax
  41364b:	ff ff 1f 
  41364e:	41 55                	push   %r13
  413650:	41 54                	push   %r12
  413652:	55                   	push   %rbp
  413653:	53                   	push   %rbx
  413654:	48 83 ec 08          	sub    $0x8,%rsp
  413658:	48 39 c6             	cmp    %rax,%rsi
  41365b:	0f 87 9f 00 00 00    	ja     413700 <_ZNSt6vectorIP20CounterWidthExtenderSaIS1_EE7reserveEm+0xc0>
  413661:	4c 8b 2f             	mov    (%rdi),%r13
  413664:	48 8b 57 10          	mov    0x10(%rdi),%rdx
  413668:	48 89 fb             	mov    %rdi,%rbx
  41366b:	48 89 f5             	mov    %rsi,%rbp
  41366e:	4c 29 ea             	sub    %r13,%rdx
  413671:	48 c1 fa 03          	sar    $0x3,%rdx
  413675:	48 39 d6             	cmp    %rdx,%rsi
  413678:	77 16                	ja     413690 <_ZNSt6vectorIP20CounterWidthExtenderSaIS1_EE7reserveEm+0x50>
  41367a:	48 83 c4 08          	add    $0x8,%rsp
  41367e:	5b                   	pop    %rbx
  41367f:	5d                   	pop    %rbp
  413680:	41 5c                	pop    %r12
  413682:	41 5d                	pop    %r13
  413684:	41 5e                	pop    %r14
  413686:	41 5f                	pop    %r15
  413688:	c3                   	retq   
  413689:	0f 1f 80 00 00 00 00 	nopl   0x0(%rax)
  413690:	4c 8b 67 08          	mov    0x8(%rdi),%r12
  413694:	4d 29 ec             	sub    %r13,%r12
  413697:	48 85 f6             	test   %rsi,%rsi
  41369a:	74 5c                	je     4136f8 <_ZNSt6vectorIP20CounterWidthExtenderSaIS1_EE7reserveEm+0xb8>
  41369c:	48 c1 e5 03          	shl    $0x3,%rbp
  4136a0:	48 89 ef             	mov    %rbp,%rdi
  4136a3:	e8 d8 cf ff ff       	callq  410680 <_Znwm@plt>
  4136a8:	4c 8b 3b             	mov    (%rbx),%r15
  4136ab:	49 89 c6             	mov    %rax,%r14
  4136ae:	4c 89 e0             	mov    %r12,%rax
  4136b1:	48 c1 f8 03          	sar    $0x3,%rax
  4136b5:	48 85 c0             	test   %rax,%rax
  4136b8:	74 0e                	je     4136c8 <_ZNSt6vectorIP20CounterWidthExtenderSaIS1_EE7reserveEm+0x88>
  4136ba:	4c 89 e2             	mov    %r12,%rdx
  4136bd:	4c 89 ee             	mov    %r13,%rsi
  4136c0:	4c 89 f7             	mov    %r14,%rdi
  4136c3:	e8 c8 d1 ff ff       	callq  410890 <memmove@plt>
  4136c8:	4d 85 ff             	test   %r15,%r15
  4136cb:	74 08                	je     4136d5 <_ZNSt6vectorIP20CounterWidthExtenderSaIS1_EE7reserveEm+0x95>
  4136cd:	4c 89 ff             	mov    %r15,%rdi
  4136d0:	e8 7b cf ff ff       	callq  410650 <_ZdlPv@plt>
  4136d5:	4d 01 f4             	add    %r14,%r12
  4136d8:	4c 01 f5             	add    %r14,%rbp
  4136db:	4c 89 33             	mov    %r14,(%rbx)
  4136de:	4c 89 63 08          	mov    %r12,0x8(%rbx)
  4136e2:	48 89 6b 10          	mov    %rbp,0x10(%rbx)
  4136e6:	48 83 c4 08          	add    $0x8,%rsp
  4136ea:	5b                   	pop    %rbx
  4136eb:	5d                   	pop    %rbp
  4136ec:	41 5c                	pop    %r12
  4136ee:	41 5d                	pop    %r13
  4136f0:	41 5e                	pop    %r14
  4136f2:	41 5f                	pop    %r15
  4136f4:	c3                   	retq   
  4136f5:	0f 1f 00             	nopl   (%rax)
  4136f8:	4d 89 ef             	mov    %r13,%r15
  4136fb:	45 31 f6             	xor    %r14d,%r14d
  4136fe:	eb ae                	jmp    4136ae <_ZNSt6vectorIP20CounterWidthExtenderSaIS1_EE7reserveEm+0x6e>
  413700:	bf 6f ca 42 00       	mov    $0x42ca6f,%edi
  413705:	e8 e6 cd ff ff       	callq  4104f0 <_ZSt20__throw_length_errorPKc@plt>
  41370a:	66 0f 1f 44 00 00    	nopw   0x0(%rax,%rax,1)

0000000000413710 <_ZNSt6vectorIP20CounterWidthExtenderSaIS1_EEixEm>:
  413710:	48 8b 07             	mov    (%rdi),%rax
  413713:	48 8d 04 f0          	lea    (%rax,%rsi,8),%rax
  413717:	c3                   	retq   
  413718:	0f 1f 84 00 00 00 00 	nopl   0x0(%rax,%rax,1)
  41371f:	00 

0000000000413720 <_ZNKSt6vectorIP20CounterWidthExtenderSaIS1_EEixEm>:
  413720:	48 8b 07             	mov    (%rdi),%rax
  413723:	48 8d 04 f0          	lea    (%rax,%rsi,8),%rax
  413727:	c3                   	retq   
  413728:	0f 1f 84 00 00 00 00 	nopl   0x0(%rax,%rax,1)
  41372f:	00 

0000000000413730 <_ZNKSt6vectorIP20CounterWidthExtenderSaIS1_EE14_M_range_checkEm>:
  413730:	48 8b 57 08          	mov    0x8(%rdi),%rdx
  413734:	48 2b 17             	sub    (%rdi),%rdx
  413737:	48 c1 fa 03          	sar    $0x3,%rdx
  41373b:	48 39 d6             	cmp    %rdx,%rsi
  41373e:	73 02                	jae    413742 <_ZNKSt6vectorIP20CounterWidthExtenderSaIS1_EE14_M_range_checkEm+0x12>
  413740:	f3 c3                	repz retq 
  413742:	48 83 ec 08          	sub    $0x8,%rsp
  413746:	bf 80 ca 42 00       	mov    $0x42ca80,%edi
  41374b:	31 c0                	xor    %eax,%eax
  41374d:	e8 9e d0 ff ff       	callq  4107f0 <_ZSt24__throw_out_of_range_fmtPKcz@plt>
  413752:	66 2e 0f 1f 84 00 00 	nopw   %cs:0x0(%rax,%rax,1)
  413759:	00 00 00 
  41375c:	0f 1f 40 00          	nopl   0x0(%rax)

0000000000413760 <_ZNSt6vectorIP20CounterWidthExtenderSaIS1_EE2atEm>:
  413760:	48 8b 07             	mov    (%rdi),%rax
  413763:	48 8b 57 08          	mov    0x8(%rdi),%rdx
  413767:	48 29 c2             	sub    %rax,%rdx
  41376a:	48 c1 fa 03          	sar    $0x3,%rdx
  41376e:	48 39 d6             	cmp    %rdx,%rsi
  413771:	73 05                	jae    413778 <_ZNSt6vectorIP20CounterWidthExtenderSaIS1_EE2atEm+0x18>
  413773:	48 8d 04 f0          	lea    (%rax,%rsi,8),%rax
  413777:	c3                   	retq   
  413778:	48 83 ec 08          	sub    $0x8,%rsp
  41377c:	bf 80 ca 42 00       	mov    $0x42ca80,%edi
  413781:	31 c0                	xor    %eax,%eax
  413783:	e8 68 d0 ff ff       	callq  4107f0 <_ZSt24__throw_out_of_range_fmtPKcz@plt>
  413788:	0f 1f 84 00 00 00 00 	nopl   0x0(%rax,%rax,1)
  41378f:	00 

0000000000413790 <_ZNKSt6vectorIP20CounterWidthExtenderSaIS1_EE2atEm>:
  413790:	48 8b 07             	mov    (%rdi),%rax
  413793:	48 8b 57 08          	mov    0x8(%rdi),%rdx
  413797:	48 29 c2             	sub    %rax,%rdx
  41379a:	48 c1 fa 03          	sar    $0x3,%rdx
  41379e:	48 39 d6             	cmp    %rdx,%rsi
  4137a1:	73 05                	jae    4137a8 <_ZNKSt6vectorIP20CounterWidthExtenderSaIS1_EE2atEm+0x18>
  4137a3:	48 8d 04 f0          	lea    (%rax,%rsi,8),%rax
  4137a7:	c3                   	retq   
  4137a8:	48 83 ec 08          	sub    $0x8,%rsp
  4137ac:	bf 80 ca 42 00       	mov    $0x42ca80,%edi
  4137b1:	31 c0                	xor    %eax,%eax
  4137b3:	e8 38 d0 ff ff       	callq  4107f0 <_ZSt24__throw_out_of_range_fmtPKcz@plt>
  4137b8:	0f 1f 84 00 00 00 00 	nopl   0x0(%rax,%rax,1)
  4137bf:	00 

00000000004137c0 <_ZNSt6vectorIP20CounterWidthExtenderSaIS1_EE5frontEv>:
  4137c0:	48 8b 07             	mov    (%rdi),%rax
  4137c3:	c3                   	retq   
  4137c4:	66 2e 0f 1f 84 00 00 	nopw   %cs:0x0(%rax,%rax,1)
  4137cb:	00 00 00 
  4137ce:	66 90                	xchg   %ax,%ax

00000000004137d0 <_ZNKSt6vectorIP20CounterWidthExtenderSaIS1_EE5frontEv>:
  4137d0:	48 8b 07             	mov    (%rdi),%rax
  4137d3:	c3                   	retq   
  4137d4:	66 2e 0f 1f 84 00 00 	nopw   %cs:0x0(%rax,%rax,1)
  4137db:	00 00 00 
  4137de:	66 90                	xchg   %ax,%ax

00000000004137e0 <_ZNSt6vectorIP20CounterWidthExtenderSaIS1_EE4backEv>:
  4137e0:	48 8b 47 08          	mov    0x8(%rdi),%rax
  4137e4:	48 83 e8 08          	sub    $0x8,%rax
  4137e8:	c3                   	retq   
  4137e9:	0f 1f 80 00 00 00 00 	nopl   0x0(%rax)

00000000004137f0 <_ZNKSt6vectorIP20CounterWidthExtenderSaIS1_EE4backEv>:
  4137f0:	48 8b 47 08          	mov    0x8(%rdi),%rax
  4137f4:	48 83 e8 08          	sub    $0x8,%rax
  4137f8:	c3                   	retq   
  4137f9:	0f 1f 80 00 00 00 00 	nopl   0x0(%rax)

0000000000413800 <_ZNSt6vectorIP20CounterWidthExtenderSaIS1_EE4dataEv>:
  413800:	48 8b 07             	mov    (%rdi),%rax
  413803:	c3                   	retq   
  413804:	66 2e 0f 1f 84 00 00 	nopw   %cs:0x0(%rax,%rax,1)
  41380b:	00 00 00 
  41380e:	66 90                	xchg   %ax,%ax

0000000000413810 <_ZNKSt6vectorIP20CounterWidthExtenderSaIS1_EE4dataEv>:
  413810:	48 8b 07             	mov    (%rdi),%rax
  413813:	c3                   	retq   
  413814:	66 2e 0f 1f 84 00 00 	nopw   %cs:0x0(%rax,%rax,1)
  41381b:	00 00 00 
  41381e:	66 90                	xchg   %ax,%ax

0000000000413820 <_ZNSt6vectorIP20CounterWidthExtenderSaIS1_EE8pop_backEv>:
  413820:	48 83 6f 08 08       	subq   $0x8,0x8(%rdi)
  413825:	c3                   	retq   
  413826:	66 2e 0f 1f 84 00 00 	nopw   %cs:0x0(%rax,%rax,1)
  41382d:	00 00 00 

0000000000413830 <_ZNSt6vectorIP20CounterWidthExtenderSaIS1_EE4swapERS3_>:
  413830:	48 8b 07             	mov    (%rdi),%rax
  413833:	48 8b 16             	mov    (%rsi),%rdx
  413836:	48 89 17             	mov    %rdx,(%rdi)
  413839:	48 89 06             	mov    %rax,(%rsi)
  41383c:	48 8b 56 08          	mov    0x8(%rsi),%rdx
  413840:	48 8b 47 08          	mov    0x8(%rdi),%rax
  413844:	48 89 57 08          	mov    %rdx,0x8(%rdi)
  413848:	48 89 46 08          	mov    %rax,0x8(%rsi)
  41384c:	48 8b 56 10          	mov    0x10(%rsi),%rdx
  413850:	48 8b 47 10          	mov    0x10(%rdi),%rax
  413854:	48 89 57 10          	mov    %rdx,0x10(%rdi)
  413858:	48 89 46 10          	mov    %rax,0x10(%rsi)
  41385c:	c3                   	retq   
  41385d:	0f 1f 00             	nopl   (%rax)

0000000000413860 <_ZNSt6vectorIP20CounterWidthExtenderSaIS1_EE5clearEv>:
  413860:	48 8b 07             	mov    (%rdi),%rax
  413863:	48 89 47 08          	mov    %rax,0x8(%rdi)
  413867:	c3                   	retq   
  413868:	0f 1f 84 00 00 00 00 	nopl   0x0(%rax,%rax,1)
  41386f:	00 

0000000000413870 <_ZNSt6vectorIP20CounterWidthExtenderSaIS1_EE18_M_fill_initializeEmRKS1_>:
  413870:	48 85 f6             	test   %rsi,%rsi
  413873:	4c 8b 07             	mov    (%rdi),%r8
  413876:	48 8b 0a             	mov    (%rdx),%rcx
  413879:	74 1e                	je     413899 <_ZNSt6vectorIP20CounterWidthExtenderSaIS1_EE18_M_fill_initializeEmRKS1_+0x29>
  41387b:	4c 89 c2             	mov    %r8,%rdx
  41387e:	48 89 f0             	mov    %rsi,%rax
  413881:	0f 1f 80 00 00 00 00 	nopl   0x0(%rax)
  413888:	48 89 0a             	mov    %rcx,(%rdx)
  41388b:	48 83 c2 08          	add    $0x8,%rdx
  41388f:	48 83 e8 01          	sub    $0x1,%rax
  413893:	75 f3                	jne    413888 <_ZNSt6vectorIP20CounterWidthExtenderSaIS1_EE18_M_fill_initializeEmRKS1_+0x18>
  413895:	4d 8d 04 f0          	lea    (%r8,%rsi,8),%r8
  413899:	4c 89 47 08          	mov    %r8,0x8(%rdi)
  41389d:	c3                   	retq   
  41389e:	66 90                	xchg   %ax,%ax

00000000004138a0 <_ZNSt6vectorIP20CounterWidthExtenderSaIS1_EE21_M_default_initializeEm>:
  4138a0:	48 85 f6             	test   %rsi,%rsi
  4138a3:	48 8b 0f             	mov    (%rdi),%rcx
  4138a6:	74 1d                	je     4138c5 <_ZNSt6vectorIP20CounterWidthExtenderSaIS1_EE21_M_default_initializeEm+0x25>
  4138a8:	48 89 ca             	mov    %rcx,%rdx
  4138ab:	48 89 f0             	mov    %rsi,%rax
  4138ae:	66 90                	xchg   %ax,%ax
  4138b0:	48 c7 02 00 00 00 00 	movq   $0x0,(%rdx)
  4138b7:	48 83 c2 08          	add    $0x8,%rdx
  4138bb:	48 83 e8 01          	sub    $0x1,%rax
  4138bf:	75 ef                	jne    4138b0 <_ZNSt6vectorIP20CounterWidthExtenderSaIS1_EE21_M_default_initializeEm+0x10>
  4138c1:	48 8d 0c f1          	lea    (%rcx,%rsi,8),%rcx
  4138c5:	48 89 4f 08          	mov    %rcx,0x8(%rdi)
  4138c9:	c3                   	retq   
  4138ca:	66 0f 1f 44 00 00    	nopw   0x0(%rax,%rax,1)

00000000004138d0 <_ZNSt6vectorIP20CounterWidthExtenderSaIS1_EE14_M_fill_assignEmRKS1_>:
  4138d0:	55                   	push   %rbp
  4138d1:	53                   	push   %rbx
  4138d2:	48 89 fb             	mov    %rdi,%rbx
  4138d5:	48 83 ec 18          	sub    $0x18,%rsp
  4138d9:	48 8b 3f             	mov    (%rdi),%rdi
  4138dc:	48 8b 43 10          	mov    0x10(%rbx),%rax
  4138e0:	48 29 f8             	sub    %rdi,%rax
  4138e3:	48 c1 f8 03          	sar    $0x3,%rax
  4138e7:	48 39 c6             	cmp    %rax,%rsi
  4138ea:	0f 87 90 00 00 00    	ja     413980 <_ZNSt6vectorIP20CounterWidthExtenderSaIS1_EE14_M_fill_assignEmRKS1_+0xb0>
  4138f0:	4c 8b 43 08          	mov    0x8(%rbx),%r8
  4138f4:	48 8b 0a             	mov    (%rdx),%rcx
  4138f7:	4c 89 c0             	mov    %r8,%rax
  4138fa:	48 29 f8             	sub    %rdi,%rax
  4138fd:	48 c1 f8 03          	sar    $0x3,%rax
  413901:	48 39 c6             	cmp    %rax,%rsi
  413904:	77 32                	ja     413938 <_ZNSt6vectorIP20CounterWidthExtenderSaIS1_EE14_M_fill_assignEmRKS1_+0x68>
  413906:	48 85 f6             	test   %rsi,%rsi
  413909:	74 1e                	je     413929 <_ZNSt6vectorIP20CounterWidthExtenderSaIS1_EE14_M_fill_assignEmRKS1_+0x59>
  41390b:	48 89 fa             	mov    %rdi,%rdx
  41390e:	48 89 f0             	mov    %rsi,%rax
  413911:	0f 1f 80 00 00 00 00 	nopl   0x0(%rax)
  413918:	48 89 0a             	mov    %rcx,(%rdx)
  41391b:	48 83 c2 08          	add    $0x8,%rdx
  41391f:	48 83 e8 01          	sub    $0x1,%rax
  413923:	75 f3                	jne    413918 <_ZNSt6vectorIP20CounterWidthExtenderSaIS1_EE14_M_fill_assignEmRKS1_+0x48>
  413925:	48 8d 3c f7          	lea    (%rdi,%rsi,8),%rdi
  413929:	48 89 7b 08          	mov    %rdi,0x8(%rbx)
  41392d:	48 83 c4 18          	add    $0x18,%rsp
  413931:	5b                   	pop    %rbx
  413932:	5d                   	pop    %rbp
  413933:	c3                   	retq   
  413934:	0f 1f 40 00          	nopl   0x0(%rax)
  413938:	4c 39 c7             	cmp    %r8,%rdi
  41393b:	74 12                	je     41394f <_ZNSt6vectorIP20CounterWidthExtenderSaIS1_EE14_M_fill_assignEmRKS1_+0x7f>
  41393d:	0f 1f 00             	nopl   (%rax)
  413940:	48 89 0f             	mov    %rcx,(%rdi)
  413943:	48 83 c7 08          	add    $0x8,%rdi
  413947:	49 39 f8             	cmp    %rdi,%r8
  41394a:	75 f4                	jne    413940 <_ZNSt6vectorIP20CounterWidthExtenderSaIS1_EE14_M_fill_assignEmRKS1_+0x70>
  41394c:	48 8b 0a             	mov    (%rdx),%rcx
  41394f:	48 29 c6             	sub    %rax,%rsi
  413952:	4c 89 c2             	mov    %r8,%rdx
  413955:	48 89 f0             	mov    %rsi,%rax
  413958:	0f 1f 84 00 00 00 00 	nopl   0x0(%rax,%rax,1)
  41395f:	00 
  413960:	48 89 0a             	mov    %rcx,(%rdx)
  413963:	48 83 c2 08          	add    $0x8,%rdx
  413967:	48 83 e8 01          	sub    $0x1,%rax
  41396b:	75 f3                	jne    413960 <_ZNSt6vectorIP20CounterWidthExtenderSaIS1_EE14_M_fill_assignEmRKS1_+0x90>
  41396d:	49 8d 04 f0          	lea    (%r8,%rsi,8),%rax
  413971:	48 89 43 08          	mov    %rax,0x8(%rbx)
  413975:	48 83 c4 18          	add    $0x18,%rsp
  413979:	5b                   	pop    %rbx
  41397a:	5d                   	pop    %rbp
  41397b:	c3                   	retq   
  41397c:	0f 1f 40 00          	nopl   0x0(%rax)
  413980:	48 85 f6             	test   %rsi,%rsi
  413983:	74 66                	je     4139eb <_ZNSt6vectorIP20CounterWidthExtenderSaIS1_EE14_M_fill_assignEmRKS1_+0x11b>
  413985:	48 b8 ff ff ff ff ff 	movabs $0x1fffffffffffffff,%rax
  41398c:	ff ff 1f 
  41398f:	48 39 c6             	cmp    %rax,%rsi
  413992:	77 5e                	ja     4139f2 <_ZNSt6vectorIP20CounterWidthExtenderSaIS1_EE14_M_fill_assignEmRKS1_+0x122>
  413994:	48 8d 2c f5 00 00 00 	lea    0x0(,%rsi,8),%rbp
  41399b:	00 
  41399c:	48 89 54 24 08       	mov    %rdx,0x8(%rsp)
  4139a1:	48 89 34 24          	mov    %rsi,(%rsp)
  4139a5:	48 89 ef             	mov    %rbp,%rdi
  4139a8:	e8 d3 cc ff ff       	callq  410680 <_Znwm@plt>
  4139ad:	48 8b 54 24 08       	mov    0x8(%rsp),%rdx
  4139b2:	48 8b 34 24          	mov    (%rsp),%rsi
  4139b6:	4c 8d 04 28          	lea    (%rax,%rbp,1),%r8
  4139ba:	48 8b 0a             	mov    (%rdx),%rcx
  4139bd:	48 89 c2             	mov    %rax,%rdx
  4139c0:	48 89 0a             	mov    %rcx,(%rdx)
  4139c3:	48 83 c2 08          	add    $0x8,%rdx
  4139c7:	48 83 ee 01          	sub    $0x1,%rsi
  4139cb:	75 f3                	jne    4139c0 <_ZNSt6vectorIP20CounterWidthExtenderSaIS1_EE14_M_fill_assignEmRKS1_+0xf0>
  4139cd:	48 8b 3b             	mov    (%rbx),%rdi
  4139d0:	48 85 ff             	test   %rdi,%rdi
  4139d3:	48 89 03             	mov    %rax,(%rbx)
  4139d6:	4c 89 43 08          	mov    %r8,0x8(%rbx)
  4139da:	4c 89 43 10          	mov    %r8,0x10(%rbx)
  4139de:	74 95                	je     413975 <_ZNSt6vectorIP20CounterWidthExtenderSaIS1_EE14_M_fill_assignEmRKS1_+0xa5>
  4139e0:	48 83 c4 18          	add    $0x18,%rsp
  4139e4:	5b                   	pop    %rbx
  4139e5:	5d                   	pop    %rbp
  4139e6:	e9 65 cc ff ff       	jmpq   410650 <_ZdlPv@plt>
  4139eb:	31 c0                	xor    %eax,%eax
  4139ed:	45 31 c0             	xor    %r8d,%r8d
  4139f0:	eb de                	jmp    4139d0 <_ZNSt6vectorIP20CounterWidthExtenderSaIS1_EE14_M_fill_assignEmRKS1_+0x100>
  4139f2:	e8 89 ca ff ff       	callq  410480 <_ZSt17__throw_bad_allocv@plt>
  4139f7:	66 0f 1f 84 00 00 00 	nopw   0x0(%rax,%rax,1)
  4139fe:	00 00 

0000000000413a00 <_ZNSt6vectorIP20CounterWidthExtenderSaIS1_EE6assignEmRKS1_>:
  413a00:	e9 cb fe ff ff       	jmpq   4138d0 <_ZNSt6vectorIP20CounterWidthExtenderSaIS1_EE14_M_fill_assignEmRKS1_>
  413a05:	66 2e 0f 1f 84 00 00 	nopw   %cs:0x0(%rax,%rax,1)
  413a0c:	00 00 00 
  413a0f:	90                   	nop

0000000000413a10 <_ZNSt6vectorIP20CounterWidthExtenderSaIS1_EE14_M_fill_insertEN9__gnu_cxx17__normal_iteratorIPS1_S3_EEmRKS1_>:
  413a10:	48 85 d2             	test   %rdx,%rdx
  413a13:	0f 84 a1 00 00 00    	je     413aba <_ZNSt6vectorIP20CounterWidthExtenderSaIS1_EE14_M_fill_insertEN9__gnu_cxx17__normal_iteratorIPS1_S3_EEmRKS1_+0xaa>
  413a19:	41 57                	push   %r15
  413a1b:	41 56                	push   %r14
  413a1d:	49 89 fe             	mov    %rdi,%r14
  413a20:	41 55                	push   %r13
  413a22:	41 54                	push   %r12
  413a24:	55                   	push   %rbp
  413a25:	53                   	push   %rbx
  413a26:	48 89 f5             	mov    %rsi,%rbp
  413a29:	48 89 d3             	mov    %rdx,%rbx
  413a2c:	48 83 ec 18          	sub    $0x18,%rsp
  413a30:	4c 8b 6f 08          	mov    0x8(%rdi),%r13
  413a34:	48 8b 47 10          	mov    0x10(%rdi),%rax
  413a38:	4c 29 e8             	sub    %r13,%rax
  413a3b:	4d 89 ef             	mov    %r13,%r15
  413a3e:	48 c1 f8 03          	sar    $0x3,%rax
  413a42:	48 39 c2             	cmp    %rax,%rdx
  413a45:	0f 87 d5 00 00 00    	ja     413b20 <_ZNSt6vectorIP20CounterWidthExtenderSaIS1_EE14_M_fill_insertEN9__gnu_cxx17__normal_iteratorIPS1_S3_EEmRKS1_+0x110>
  413a4b:	49 29 f7             	sub    %rsi,%r15
  413a4e:	4c 8b 21             	mov    (%rcx),%r12
  413a51:	4c 89 fe             	mov    %r15,%rsi
  413a54:	48 c1 fe 03          	sar    $0x3,%rsi
  413a58:	48 39 f2             	cmp    %rsi,%rdx
  413a5b:	73 63                	jae    413ac0 <_ZNSt6vectorIP20CounterWidthExtenderSaIS1_EE14_M_fill_insertEN9__gnu_cxx17__normal_iteratorIPS1_S3_EEmRKS1_+0xb0>
  413a5d:	48 c1 e3 03          	shl    $0x3,%rbx
  413a61:	4d 89 ef             	mov    %r13,%r15
  413a64:	4c 89 e8             	mov    %r13,%rax
  413a67:	49 29 df             	sub    %rbx,%r15
  413a6a:	48 85 db             	test   %rbx,%rbx
  413a6d:	0f 85 2d 01 00 00    	jne    413ba0 <_ZNSt6vectorIP20CounterWidthExtenderSaIS1_EE14_M_fill_insertEN9__gnu_cxx17__normal_iteratorIPS1_S3_EEmRKS1_+0x190>
  413a73:	48 01 d8             	add    %rbx,%rax
  413a76:	49 29 ef             	sub    %rbp,%r15
  413a79:	49 89 46 08          	mov    %rax,0x8(%r14)
  413a7d:	4c 89 f8             	mov    %r15,%rax
  413a80:	48 c1 f8 03          	sar    $0x3,%rax
  413a84:	48 85 c0             	test   %rax,%rax
  413a87:	0f 85 f3 00 00 00    	jne    413b80 <_ZNSt6vectorIP20CounterWidthExtenderSaIS1_EE14_M_fill_insertEN9__gnu_cxx17__normal_iteratorIPS1_S3_EEmRKS1_+0x170>
  413a8d:	48 01 eb             	add    %rbp,%rbx
  413a90:	48 39 eb             	cmp    %rbp,%rbx
  413a93:	74 17                	je     413aac <_ZNSt6vectorIP20CounterWidthExtenderSaIS1_EE14_M_fill_insertEN9__gnu_cxx17__normal_iteratorIPS1_S3_EEmRKS1_+0x9c>
  413a95:	48 89 ee             	mov    %rbp,%rsi
  413a98:	0f 1f 84 00 00 00 00 	nopl   0x0(%rax,%rax,1)
  413a9f:	00 
  413aa0:	4c 89 26             	mov    %r12,(%rsi)
  413aa3:	48 83 c6 08          	add    $0x8,%rsi
  413aa7:	48 39 f3             	cmp    %rsi,%rbx
  413aaa:	75 f4                	jne    413aa0 <_ZNSt6vectorIP20CounterWidthExtenderSaIS1_EE14_M_fill_insertEN9__gnu_cxx17__normal_iteratorIPS1_S3_EEmRKS1_+0x90>
  413aac:	48 83 c4 18          	add    $0x18,%rsp
  413ab0:	5b                   	pop    %rbx
  413ab1:	5d                   	pop    %rbp
  413ab2:	41 5c                	pop    %r12
  413ab4:	41 5d                	pop    %r13
  413ab6:	41 5e                	pop    %r14
  413ab8:	41 5f                	pop    %r15
  413aba:	f3 c3                	repz retq 
  413abc:	0f 1f 40 00          	nopl   0x0(%rax)
  413ac0:	48 29 f3             	sub    %rsi,%rbx
  413ac3:	0f 84 fc 01 00 00    	je     413cc5 <_ZNSt6vectorIP20CounterWidthExtenderSaIS1_EE14_M_fill_insertEN9__gnu_cxx17__normal_iteratorIPS1_S3_EEmRKS1_+0x2b5>
  413ac9:	4c 89 e9             	mov    %r13,%rcx
  413acc:	48 89 d8             	mov    %rbx,%rax
  413acf:	90                   	nop
  413ad0:	4c 89 21             	mov    %r12,(%rcx)
  413ad3:	48 83 c1 08          	add    $0x8,%rcx
  413ad7:	48 83 e8 01          	sub    $0x1,%rax
  413adb:	75 f3                	jne    413ad0 <_ZNSt6vectorIP20CounterWidthExtenderSaIS1_EE14_M_fill_insertEN9__gnu_cxx17__normal_iteratorIPS1_S3_EEmRKS1_+0xc0>
  413add:	49 8d 7c dd 00       	lea    0x0(%r13,%rbx,8),%rdi
  413ae2:	48 85 f6             	test   %rsi,%rsi
  413ae5:	49 89 7e 08          	mov    %rdi,0x8(%r14)
  413ae9:	0f 85 79 01 00 00    	jne    413c68 <_ZNSt6vectorIP20CounterWidthExtenderSaIS1_EE14_M_fill_insertEN9__gnu_cxx17__normal_iteratorIPS1_S3_EEmRKS1_+0x258>
  413aef:	4c 01 ff             	add    %r15,%rdi
  413af2:	49 39 ed             	cmp    %rbp,%r13
  413af5:	49 89 7e 08          	mov    %rdi,0x8(%r14)
  413af9:	74 b1                	je     413aac <_ZNSt6vectorIP20CounterWidthExtenderSaIS1_EE14_M_fill_insertEN9__gnu_cxx17__normal_iteratorIPS1_S3_EEmRKS1_+0x9c>
  413afb:	48 89 ee             	mov    %rbp,%rsi
  413afe:	66 90                	xchg   %ax,%ax
  413b00:	4c 89 26             	mov    %r12,(%rsi)
  413b03:	48 83 c6 08          	add    $0x8,%rsi
  413b07:	49 39 f5             	cmp    %rsi,%r13
  413b0a:	75 f4                	jne    413b00 <_ZNSt6vectorIP20CounterWidthExtenderSaIS1_EE14_M_fill_insertEN9__gnu_cxx17__normal_iteratorIPS1_S3_EEmRKS1_+0xf0>
  413b0c:	48 83 c4 18          	add    $0x18,%rsp
  413b10:	5b                   	pop    %rbx
  413b11:	5d                   	pop    %rbp
  413b12:	41 5c                	pop    %r12
  413b14:	41 5d                	pop    %r13
  413b16:	41 5e                	pop    %r14
  413b18:	41 5f                	pop    %r15
  413b1a:	eb 9e                	jmp    413aba <_ZNSt6vectorIP20CounterWidthExtenderSaIS1_EE14_M_fill_insertEN9__gnu_cxx17__normal_iteratorIPS1_S3_EEmRKS1_+0xaa>
  413b1c:	0f 1f 40 00          	nopl   0x0(%rax)
  413b20:	4c 8b 07             	mov    (%rdi),%r8
  413b23:	4d 89 ec             	mov    %r13,%r12
  413b26:	48 ba ff ff ff ff ff 	movabs $0x1fffffffffffffff,%rdx
  413b2d:	ff ff 1f 
  413b30:	48 89 d0             	mov    %rdx,%rax
  413b33:	4d 29 c4             	sub    %r8,%r12
  413b36:	49 c1 fc 03          	sar    $0x3,%r12
  413b3a:	4c 29 e0             	sub    %r12,%rax
  413b3d:	48 39 c3             	cmp    %rax,%rbx
  413b40:	0f 87 94 01 00 00    	ja     413cda <_ZNSt6vectorIP20CounterWidthExtenderSaIS1_EE14_M_fill_insertEN9__gnu_cxx17__normal_iteratorIPS1_S3_EEmRKS1_+0x2ca>
  413b46:	4c 39 e3             	cmp    %r12,%rbx
  413b49:	4c 89 e0             	mov    %r12,%rax
  413b4c:	48 0f 43 c3          	cmovae %rbx,%rax
  413b50:	4c 01 e0             	add    %r12,%rax
  413b53:	72 6b                	jb     413bc0 <_ZNSt6vectorIP20CounterWidthExtenderSaIS1_EE14_M_fill_insertEN9__gnu_cxx17__normal_iteratorIPS1_S3_EEmRKS1_+0x1b0>
  413b55:	48 39 d0             	cmp    %rdx,%rax
  413b58:	77 66                	ja     413bc0 <_ZNSt6vectorIP20CounterWidthExtenderSaIS1_EE14_M_fill_insertEN9__gnu_cxx17__normal_iteratorIPS1_S3_EEmRKS1_+0x1b0>
  413b5a:	48 89 f7             	mov    %rsi,%rdi
  413b5d:	4c 29 c7             	sub    %r8,%rdi
  413b60:	48 85 c0             	test   %rax,%rax
  413b63:	48 89 3c 24          	mov    %rdi,(%rsp)
  413b67:	0f 85 60 01 00 00    	jne    413ccd <_ZNSt6vectorIP20CounterWidthExtenderSaIS1_EE14_M_fill_insertEN9__gnu_cxx17__normal_iteratorIPS1_S3_EEmRKS1_+0x2bd>
  413b6d:	49 89 fa             	mov    %rdi,%r10
  413b70:	45 31 e4             	xor    %r12d,%r12d
  413b73:	45 31 ed             	xor    %r13d,%r13d
  413b76:	eb 7e                	jmp    413bf6 <_ZNSt6vectorIP20CounterWidthExtenderSaIS1_EE14_M_fill_insertEN9__gnu_cxx17__normal_iteratorIPS1_S3_EEmRKS1_+0x1e6>
  413b78:	0f 1f 84 00 00 00 00 	nopl   0x0(%rax,%rax,1)
  413b7f:	00 
  413b80:	4c 89 ef             	mov    %r13,%rdi
  413b83:	4c 89 fa             	mov    %r15,%rdx
  413b86:	48 89 ee             	mov    %rbp,%rsi
  413b89:	4c 29 ff             	sub    %r15,%rdi
  413b8c:	e8 ff cc ff ff       	callq  410890 <memmove@plt>
  413b91:	e9 f7 fe ff ff       	jmpq   413a8d <_ZNSt6vectorIP20CounterWidthExtenderSaIS1_EE14_M_fill_insertEN9__gnu_cxx17__normal_iteratorIPS1_S3_EEmRKS1_+0x7d>
  413b96:	66 2e 0f 1f 84 00 00 	nopw   %cs:0x0(%rax,%rax,1)
  413b9d:	00 00 00 
  413ba0:	48 89 da             	mov    %rbx,%rdx
  413ba3:	4c 89 fe             	mov    %r15,%rsi
  413ba6:	4c 89 ef             	mov    %r13,%rdi
  413ba9:	e8 e2 cc ff ff       	callq  410890 <memmove@plt>
  413bae:	49 8b 46 08          	mov    0x8(%r14),%rax
  413bb2:	e9 bc fe ff ff       	jmpq   413a73 <_ZNSt6vectorIP20CounterWidthExtenderSaIS1_EE14_M_fill_insertEN9__gnu_cxx17__normal_iteratorIPS1_S3_EEmRKS1_+0x63>
  413bb7:	66 0f 1f 84 00 00 00 	nopw   0x0(%rax,%rax,1)
  413bbe:	00 00 
  413bc0:	48 89 e8             	mov    %rbp,%rax
  413bc3:	49 c7 c4 f8 ff ff ff 	mov    $0xfffffffffffffff8,%r12
  413bca:	4c 29 c0             	sub    %r8,%rax
  413bcd:	48 89 04 24          	mov    %rax,(%rsp)
  413bd1:	4c 89 e7             	mov    %r12,%rdi
  413bd4:	48 89 4c 24 08       	mov    %rcx,0x8(%rsp)
  413bd9:	e8 a2 ca ff ff       	callq  410680 <_Znwm@plt>
  413bde:	4d 8b 06             	mov    (%r14),%r8
  413be1:	4d 8b 7e 08          	mov    0x8(%r14),%r15
  413be5:	49 89 ea             	mov    %rbp,%r10
  413be8:	48 8b 4c 24 08       	mov    0x8(%rsp),%rcx
  413bed:	49 89 c5             	mov    %rax,%r13
  413bf0:	49 01 c4             	add    %rax,%r12
  413bf3:	4d 29 c2             	sub    %r8,%r10
  413bf6:	48 8b 34 24          	mov    (%rsp),%rsi
  413bfa:	48 8b 11             	mov    (%rcx),%rdx
  413bfd:	48 89 d8             	mov    %rbx,%rax
  413c00:	4c 01 ee             	add    %r13,%rsi
  413c03:	0f 1f 44 00 00       	nopl   0x0(%rax,%rax,1)
  413c08:	48 89 16             	mov    %rdx,(%rsi)
  413c0b:	48 83 c6 08          	add    $0x8,%rsi
  413c0f:	48 83 e8 01          	sub    $0x1,%rax
  413c13:	75 f3                	jne    413c08 <_ZNSt6vectorIP20CounterWidthExtenderSaIS1_EE14_M_fill_insertEN9__gnu_cxx17__normal_iteratorIPS1_S3_EEmRKS1_+0x1f8>
  413c15:	4c 89 d0             	mov    %r10,%rax
  413c18:	48 c1 f8 03          	sar    $0x3,%rax
  413c1c:	48 85 c0             	test   %rax,%rax
  413c1f:	75 7f                	jne    413ca0 <_ZNSt6vectorIP20CounterWidthExtenderSaIS1_EE14_M_fill_insertEN9__gnu_cxx17__normal_iteratorIPS1_S3_EEmRKS1_+0x290>
  413c21:	49 29 ef             	sub    %rbp,%r15
  413c24:	49 8d 0c da          	lea    (%r10,%rbx,8),%rcx
  413c28:	4c 89 f8             	mov    %r15,%rax
  413c2b:	48 c1 f8 03          	sar    $0x3,%rax
  413c2f:	4c 01 e9             	add    %r13,%rcx
  413c32:	48 85 c0             	test   %rax,%rax
  413c35:	75 49                	jne    413c80 <_ZNSt6vectorIP20CounterWidthExtenderSaIS1_EE14_M_fill_insertEN9__gnu_cxx17__normal_iteratorIPS1_S3_EEmRKS1_+0x270>
  413c37:	49 01 cf             	add    %rcx,%r15
  413c3a:	4d 85 c0             	test   %r8,%r8
  413c3d:	74 08                	je     413c47 <_ZNSt6vectorIP20CounterWidthExtenderSaIS1_EE14_M_fill_insertEN9__gnu_cxx17__normal_iteratorIPS1_S3_EEmRKS1_+0x237>
  413c3f:	4c 89 c7             	mov    %r8,%rdi
  413c42:	e8 09 ca ff ff       	callq  410650 <_ZdlPv@plt>
  413c47:	4d 89 2e             	mov    %r13,(%r14)
  413c4a:	4d 89 7e 08          	mov    %r15,0x8(%r14)
  413c4e:	4d 89 66 10          	mov    %r12,0x10(%r14)
  413c52:	48 83 c4 18          	add    $0x18,%rsp
  413c56:	5b                   	pop    %rbx
  413c57:	5d                   	pop    %rbp
  413c58:	41 5c                	pop    %r12
  413c5a:	41 5d                	pop    %r13
  413c5c:	41 5e                	pop    %r14
  413c5e:	41 5f                	pop    %r15
  413c60:	e9 55 fe ff ff       	jmpq   413aba <_ZNSt6vectorIP20CounterWidthExtenderSaIS1_EE14_M_fill_insertEN9__gnu_cxx17__normal_iteratorIPS1_S3_EEmRKS1_+0xaa>
  413c65:	0f 1f 00             	nopl   (%rax)
  413c68:	4c 89 fa             	mov    %r15,%rdx
  413c6b:	48 89 ee             	mov    %rbp,%rsi
  413c6e:	e8 1d cc ff ff       	callq  410890 <memmove@plt>
  413c73:	49 8b 7e 08          	mov    0x8(%r14),%rdi
  413c77:	e9 73 fe ff ff       	jmpq   413aef <_ZNSt6vectorIP20CounterWidthExtenderSaIS1_EE14_M_fill_insertEN9__gnu_cxx17__normal_iteratorIPS1_S3_EEmRKS1_+0xdf>
  413c7c:	0f 1f 40 00          	nopl   0x0(%rax)
  413c80:	48 89 cf             	mov    %rcx,%rdi
  413c83:	4c 89 fa             	mov    %r15,%rdx
  413c86:	48 89 ee             	mov    %rbp,%rsi
  413c89:	4c 89 04 24          	mov    %r8,(%rsp)
  413c8d:	e8 5e c9 ff ff       	callq  4105f0 <memcpy@plt>
  413c92:	4c 8b 04 24          	mov    (%rsp),%r8
  413c96:	48 89 c1             	mov    %rax,%rcx
  413c99:	eb 9c                	jmp    413c37 <_ZNSt6vectorIP20CounterWidthExtenderSaIS1_EE14_M_fill_insertEN9__gnu_cxx17__normal_iteratorIPS1_S3_EEmRKS1_+0x227>
  413c9b:	0f 1f 44 00 00       	nopl   0x0(%rax,%rax,1)
  413ca0:	4c 89 d2             	mov    %r10,%rdx
  413ca3:	4c 89 c6             	mov    %r8,%rsi
  413ca6:	4c 89 ef             	mov    %r13,%rdi
  413ca9:	4c 89 54 24 08       	mov    %r10,0x8(%rsp)
  413cae:	4c 89 04 24          	mov    %r8,(%rsp)
  413cb2:	e8 d9 cb ff ff       	callq  410890 <memmove@plt>
  413cb7:	4c 8b 54 24 08       	mov    0x8(%rsp),%r10
  413cbc:	4c 8b 04 24          	mov    (%rsp),%r8
  413cc0:	e9 5c ff ff ff       	jmpq   413c21 <_ZNSt6vectorIP20CounterWidthExtenderSaIS1_EE14_M_fill_insertEN9__gnu_cxx17__normal_iteratorIPS1_S3_EEmRKS1_+0x211>
  413cc5:	4c 89 ef             	mov    %r13,%rdi
  413cc8:	e9 15 fe ff ff       	jmpq   413ae2 <_ZNSt6vectorIP20CounterWidthExtenderSaIS1_EE14_M_fill_insertEN9__gnu_cxx17__normal_iteratorIPS1_S3_EEmRKS1_+0xd2>
  413ccd:	4c 8d 24 c5 00 00 00 	lea    0x0(,%rax,8),%r12
  413cd4:	00 
  413cd5:	e9 f7 fe ff ff       	jmpq   413bd1 <_ZNSt6vectorIP20CounterWidthExtenderSaIS1_EE14_M_fill_insertEN9__gnu_cxx17__normal_iteratorIPS1_S3_EEmRKS1_+0x1c1>
  413cda:	bf ca ca 42 00       	mov    $0x42caca,%edi
  413cdf:	e8 0c c8 ff ff       	callq  4104f0 <_ZSt20__throw_length_errorPKc@plt>
  413ce4:	66 2e 0f 1f 84 00 00 	nopw   %cs:0x0(%rax,%rax,1)
  413ceb:	00 00 00 
  413cee:	66 90                	xchg   %ax,%ax

0000000000413cf0 <_ZNSt6vectorIP20CounterWidthExtenderSaIS1_EE6insertEN9__gnu_cxx17__normal_iteratorIPKS1_S3_EEmRS6_>:
  413cf0:	55                   	push   %rbp
  413cf1:	53                   	push   %rbx
  413cf2:	48 89 f3             	mov    %rsi,%rbx
  413cf5:	48 89 fd             	mov    %rdi,%rbp
  413cf8:	48 83 ec 08          	sub    $0x8,%rsp
  413cfc:	48 2b 1f             	sub    (%rdi),%rbx
  413cff:	e8 0c fd ff ff       	callq  413a10 <_ZNSt6vectorIP20CounterWidthExtenderSaIS1_EE14_M_fill_insertEN9__gnu_cxx17__normal_iteratorIPS1_S3_EEmRKS1_>
  413d04:	48 89 d8             	mov    %rbx,%rax
  413d07:	48 03 45 00          	add    0x0(%rbp),%rax
  413d0b:	48 83 c4 08          	add    $0x8,%rsp
  413d0f:	5b                   	pop    %rbx
  413d10:	5d                   	pop    %rbp
  413d11:	c3                   	retq   
  413d12:	66 2e 0f 1f 84 00 00 	nopw   %cs:0x0(%rax,%rax,1)
  413d19:	00 00 00 
  413d1c:	0f 1f 40 00          	nopl   0x0(%rax)

0000000000413d20 <_ZNSt6vectorIP20CounterWidthExtenderSaIS1_EE6resizeEmRKS1_>:
  413d20:	4c 8b 4f 08          	mov    0x8(%rdi),%r9
  413d24:	4c 8b 07             	mov    (%rdi),%r8
  413d27:	4c 89 c8             	mov    %r9,%rax
  413d2a:	4c 29 c0             	sub    %r8,%rax
  413d2d:	48 c1 f8 03          	sar    $0x3,%rax
  413d31:	48 39 c6             	cmp    %rax,%rsi
  413d34:	77 12                	ja     413d48 <_ZNSt6vectorIP20CounterWidthExtenderSaIS1_EE6resizeEmRKS1_+0x28>
  413d36:	73 29                	jae    413d61 <_ZNSt6vectorIP20CounterWidthExtenderSaIS1_EE6resizeEmRKS1_+0x41>
  413d38:	49 8d 04 f0          	lea    (%r8,%rsi,8),%rax
  413d3c:	48 89 47 08          	mov    %rax,0x8(%rdi)
  413d40:	c3                   	retq   
  413d41:	0f 1f 80 00 00 00 00 	nopl   0x0(%rax)
  413d48:	48 89 d1             	mov    %rdx,%rcx
  413d4b:	48 89 f2             	mov    %rsi,%rdx
  413d4e:	48 83 ec 08          	sub    $0x8,%rsp
  413d52:	48 29 c2             	sub    %rax,%rdx
  413d55:	4c 89 ce             	mov    %r9,%rsi
  413d58:	e8 b3 fc ff ff       	callq  413a10 <_ZNSt6vectorIP20CounterWidthExtenderSaIS1_EE14_M_fill_insertEN9__gnu_cxx17__normal_iteratorIPS1_S3_EEmRKS1_>
  413d5d:	48 83 c4 08          	add    $0x8,%rsp
  413d61:	f3 c3                	repz retq 
  413d63:	66 2e 0f 1f 84 00 00 	nopw   %cs:0x0(%rax,%rax,1)
  413d6a:	00 00 00 
  413d6d:	0f 1f 00             	nopl   (%rax)

0000000000413d70 <_ZNSt6vectorIP20CounterWidthExtenderSaIS1_EE17_M_default_appendEm>:
  413d70:	48 85 f6             	test   %rsi,%rsi
  413d73:	0f 84 c3 00 00 00    	je     413e3c <_ZNSt6vectorIP20CounterWidthExtenderSaIS1_EE17_M_default_appendEm+0xcc>
  413d79:	48 8b 4f 08          	mov    0x8(%rdi),%rcx
  413d7d:	48 8b 47 10          	mov    0x10(%rdi),%rax
  413d81:	48 29 c8             	sub    %rcx,%rax
  413d84:	48 c1 f8 03          	sar    $0x3,%rax
  413d88:	48 39 c6             	cmp    %rax,%rsi
  413d8b:	0f 87 af 00 00 00    	ja     413e40 <_ZNSt6vectorIP20CounterWidthExtenderSaIS1_EE17_M_default_appendEm+0xd0>
  413d91:	48 89 f2             	mov    %rsi,%rdx
  413d94:	48 89 c8             	mov    %rcx,%rax
  413d97:	66 0f 1f 84 00 00 00 	nopw   0x0(%rax,%rax,1)
  413d9e:	00 00 
  413da0:	48 c7 00 00 00 00 00 	movq   $0x0,(%rax)
  413da7:	48 83 c0 08          	add    $0x8,%rax
  413dab:	48 83 ea 01          	sub    $0x1,%rdx
  413daf:	75 ef                	jne    413da0 <_ZNSt6vectorIP20CounterWidthExtenderSaIS1_EE17_M_default_appendEm+0x30>
  413db1:	48 8d 04 f1          	lea    (%rcx,%rsi,8),%rax
  413db5:	48 89 47 08          	mov    %rax,0x8(%rdi)
  413db9:	c3                   	retq   
  413dba:	66 0f 1f 44 00 00    	nopw   0x0(%rax,%rax,1)
  413dc0:	49 c7 c5 f8 ff ff ff 	mov    $0xfffffffffffffff8,%r13
  413dc7:	4c 89 ef             	mov    %r13,%rdi
  413dca:	e8 b1 c8 ff ff       	callq  410680 <_Znwm@plt>
  413dcf:	4c 8b 75 00          	mov    0x0(%rbp),%r14
  413dd3:	4c 8b 65 08          	mov    0x8(%rbp),%r12
  413dd7:	49 89 c7             	mov    %rax,%r15
  413dda:	49 01 c5             	add    %rax,%r13
  413ddd:	4d 29 f4             	sub    %r14,%r12
  413de0:	4c 89 e1             	mov    %r12,%rcx
  413de3:	48 c1 f9 03          	sar    $0x3,%rcx
  413de7:	48 85 c9             	test   %rcx,%rcx
  413dea:	0f 85 c8 00 00 00    	jne    413eb8 <_ZNSt6vectorIP20CounterWidthExtenderSaIS1_EE17_M_default_appendEm+0x148>
  413df0:	4b 8d 0c 27          	lea    (%r15,%r12,1),%rcx
  413df4:	48 89 d8             	mov    %rbx,%rax
  413df7:	48 89 ca             	mov    %rcx,%rdx
  413dfa:	66 0f 1f 44 00 00    	nopw   0x0(%rax,%rax,1)
  413e00:	48 c7 02 00 00 00 00 	movq   $0x0,(%rdx)
  413e07:	48 83 c2 08          	add    $0x8,%rdx
  413e0b:	48 83 e8 01          	sub    $0x1,%rax
  413e0f:	75 ef                	jne    413e00 <_ZNSt6vectorIP20CounterWidthExtenderSaIS1_EE17_M_default_appendEm+0x90>
  413e11:	4d 85 f6             	test   %r14,%r14
  413e14:	48 8d 1c d9          	lea    (%rcx,%rbx,8),%rbx
  413e18:	74 08                	je     413e22 <_ZNSt6vectorIP20CounterWidthExtenderSaIS1_EE17_M_default_appendEm+0xb2>
  413e1a:	4c 89 f7             	mov    %r14,%rdi
  413e1d:	e8 2e c8 ff ff       	callq  410650 <_ZdlPv@plt>
  413e22:	4c 89 7d 00          	mov    %r15,0x0(%rbp)
  413e26:	48 89 5d 08          	mov    %rbx,0x8(%rbp)
  413e2a:	4c 89 6d 10          	mov    %r13,0x10(%rbp)
  413e2e:	48 83 c4 08          	add    $0x8,%rsp
  413e32:	5b                   	pop    %rbx
  413e33:	5d                   	pop    %rbp
  413e34:	41 5c                	pop    %r12
  413e36:	41 5d                	pop    %r13
  413e38:	41 5e                	pop    %r14
  413e3a:	41 5f                	pop    %r15
  413e3c:	f3 c3                	repz retq 
  413e3e:	66 90                	xchg   %ax,%ax
  413e40:	41 57                	push   %r15
  413e42:	41 56                	push   %r14
  413e44:	41 55                	push   %r13
  413e46:	41 54                	push   %r12
  413e48:	55                   	push   %rbp
  413e49:	53                   	push   %rbx
  413e4a:	48 89 f3             	mov    %rsi,%rbx
  413e4d:	48 be ff ff ff ff ff 	movabs $0x1fffffffffffffff,%rsi
  413e54:	ff ff 1f 
  413e57:	48 89 fd             	mov    %rdi,%rbp
  413e5a:	48 83 ec 08          	sub    $0x8,%rsp
  413e5e:	4c 8b 37             	mov    (%rdi),%r14
  413e61:	48 89 f2             	mov    %rsi,%rdx
  413e64:	4c 29 f1             	sub    %r14,%rcx
  413e67:	48 89 c8             	mov    %rcx,%rax
  413e6a:	49 89 cc             	mov    %rcx,%r12
  413e6d:	48 c1 f8 03          	sar    $0x3,%rax
  413e71:	48 29 c2             	sub    %rax,%rdx
  413e74:	48 89 c1             	mov    %rax,%rcx
  413e77:	48 39 d3             	cmp    %rdx,%rbx
  413e7a:	77 4f                	ja     413ecb <_ZNSt6vectorIP20CounterWidthExtenderSaIS1_EE17_M_default_appendEm+0x15b>
  413e7c:	48 39 c3             	cmp    %rax,%rbx
  413e7f:	48 89 c2             	mov    %rax,%rdx
  413e82:	48 0f 43 d3          	cmovae %rbx,%rdx
  413e86:	48 01 d0             	add    %rdx,%rax
  413e89:	0f 82 31 ff ff ff    	jb     413dc0 <_ZNSt6vectorIP20CounterWidthExtenderSaIS1_EE17_M_default_appendEm+0x50>
  413e8f:	48 39 f0             	cmp    %rsi,%rax
  413e92:	0f 87 28 ff ff ff    	ja     413dc0 <_ZNSt6vectorIP20CounterWidthExtenderSaIS1_EE17_M_default_appendEm+0x50>
  413e98:	45 31 ed             	xor    %r13d,%r13d
  413e9b:	45 31 ff             	xor    %r15d,%r15d
  413e9e:	48 85 c0             	test   %rax,%rax
  413ea1:	0f 84 40 ff ff ff    	je     413de7 <_ZNSt6vectorIP20CounterWidthExtenderSaIS1_EE17_M_default_appendEm+0x77>
  413ea7:	4c 8d 2c c5 00 00 00 	lea    0x0(,%rax,8),%r13
  413eae:	00 
  413eaf:	e9 13 ff ff ff       	jmpq   413dc7 <_ZNSt6vectorIP20CounterWidthExtenderSaIS1_EE17_M_default_appendEm+0x57>
  413eb4:	0f 1f 40 00          	nopl   0x0(%rax)
  413eb8:	4c 89 e2             	mov    %r12,%rdx
  413ebb:	4c 89 f6             	mov    %r14,%rsi
  413ebe:	4c 89 ff             	mov    %r15,%rdi
  413ec1:	e8 ca c9 ff ff       	callq  410890 <memmove@plt>
  413ec6:	e9 25 ff ff ff       	jmpq   413df0 <_ZNSt6vectorIP20CounterWidthExtenderSaIS1_EE17_M_default_appendEm+0x80>
  413ecb:	bf e1 ca 42 00       	mov    $0x42cae1,%edi
  413ed0:	e8 1b c6 ff ff       	callq  4104f0 <_ZSt20__throw_length_errorPKc@plt>
  413ed5:	66 2e 0f 1f 84 00 00 	nopw   %cs:0x0(%rax,%rax,1)
  413edc:	00 00 00 
  413edf:	90                   	nop

0000000000413ee0 <_ZNSt6vectorIP20CounterWidthExtenderSaIS1_EE6resizeEm>:
  413ee0:	48 8b 17             	mov    (%rdi),%rdx
  413ee3:	48 8b 47 08          	mov    0x8(%rdi),%rax
  413ee7:	48 29 d0             	sub    %rdx,%rax
  413eea:	48 c1 f8 03          	sar    $0x3,%rax
  413eee:	48 39 c6             	cmp    %rax,%rsi
  413ef1:	77 0d                	ja     413f00 <_ZNSt6vectorIP20CounterWidthExtenderSaIS1_EE6resizeEm+0x20>
  413ef3:	73 08                	jae    413efd <_ZNSt6vectorIP20CounterWidthExtenderSaIS1_EE6resizeEm+0x1d>
  413ef5:	48 8d 04 f2          	lea    (%rdx,%rsi,8),%rax
  413ef9:	48 89 47 08          	mov    %rax,0x8(%rdi)
  413efd:	f3 c3                	repz retq 
  413eff:	90                   	nop
  413f00:	48 29 c6             	sub    %rax,%rsi
  413f03:	e9 68 fe ff ff       	jmpq   413d70 <_ZNSt6vectorIP20CounterWidthExtenderSaIS1_EE17_M_default_appendEm>
  413f08:	0f 1f 84 00 00 00 00 	nopl   0x0(%rax,%rax,1)
  413f0f:	00 

0000000000413f10 <_ZNSt6vectorIP20CounterWidthExtenderSaIS1_EE16_M_shrink_to_fitEv>:
  413f10:	41 57                	push   %r15
  413f12:	41 56                	push   %r14
  413f14:	31 c0                	xor    %eax,%eax
  413f16:	41 55                	push   %r13
  413f18:	41 54                	push   %r12
  413f1a:	55                   	push   %rbp
  413f1b:	53                   	push   %rbx
  413f1c:	48 83 ec 08          	sub    $0x8,%rsp
  413f20:	4c 8b 27             	mov    (%rdi),%r12
  413f23:	48 8b 5f 08          	mov    0x8(%rdi),%rbx
  413f27:	48 8b 57 10          	mov    0x10(%rdi),%rdx
  413f2b:	4c 29 e3             	sub    %r12,%rbx
  413f2e:	4c 29 e2             	sub    %r12,%rdx
  413f31:	48 89 dd             	mov    %rbx,%rbp
  413f34:	48 c1 fd 03          	sar    $0x3,%rbp
  413f38:	48 c1 fa 03          	sar    $0x3,%rdx
  413f3c:	48 39 d5             	cmp    %rdx,%rbp
  413f3f:	74 52                	je     413f93 <_ZNSt6vectorIP20CounterWidthExtenderSaIS1_EE16_M_shrink_to_fitEv+0x83>
  413f41:	31 c9                	xor    %ecx,%ecx
  413f43:	48 85 ed             	test   %rbp,%rbp
  413f46:	49 89 fd             	mov    %rdi,%r13
  413f49:	4d 89 e7             	mov    %r12,%r15
  413f4c:	74 1e                	je     413f6c <_ZNSt6vectorIP20CounterWidthExtenderSaIS1_EE16_M_shrink_to_fitEv+0x5c>
  413f4e:	48 b8 ff ff ff ff ff 	movabs $0x1fffffffffffffff,%rax
  413f55:	ff ff 1f 
  413f58:	48 39 c5             	cmp    %rax,%rbp
  413f5b:	77 5e                	ja     413fbb <_ZNSt6vectorIP20CounterWidthExtenderSaIS1_EE16_M_shrink_to_fitEv+0xab>
  413f5d:	48 89 df             	mov    %rbx,%rdi
  413f60:	e8 1b c7 ff ff       	callq  410680 <_Znwm@plt>
  413f65:	4d 8b 7d 00          	mov    0x0(%r13),%r15
  413f69:	48 89 c1             	mov    %rax,%rcx
  413f6c:	48 85 ed             	test   %rbp,%rbp
  413f6f:	4c 8d 34 19          	lea    (%rcx,%rbx,1),%r14
  413f73:	75 33                	jne    413fa8 <_ZNSt6vectorIP20CounterWidthExtenderSaIS1_EE16_M_shrink_to_fitEv+0x98>
  413f75:	4d 85 ff             	test   %r15,%r15
  413f78:	49 89 4d 00          	mov    %rcx,0x0(%r13)
  413f7c:	4d 89 75 08          	mov    %r14,0x8(%r13)
  413f80:	4d 89 75 10          	mov    %r14,0x10(%r13)
  413f84:	74 08                	je     413f8e <_ZNSt6vectorIP20CounterWidthExtenderSaIS1_EE16_M_shrink_to_fitEv+0x7e>
  413f86:	4c 89 ff             	mov    %r15,%rdi
  413f89:	e8 c2 c6 ff ff       	callq  410650 <_ZdlPv@plt>
  413f8e:	b8 01 00 00 00       	mov    $0x1,%eax
  413f93:	48 83 c4 08          	add    $0x8,%rsp
  413f97:	5b                   	pop    %rbx
  413f98:	5d                   	pop    %rbp
  413f99:	41 5c                	pop    %r12
